
main.elf:     file format elf32-littlenios2
main.elf
architecture: nios2:r1, flags 0x00000112:
EXEC_P, HAS_SYMS, D_PAGED
start address 0x00008184

Program Header:
    LOAD off    0x00001000 vaddr 0x00008000 paddr 0x00008000 align 2**12
         filesz 0x00000020 memsz 0x00000020 flags r-x
    LOAD off    0x00001020 vaddr 0x00008020 paddr 0x00008020 align 2**12
         filesz 0x00004588 memsz 0x00004588 flags r-x
    LOAD off    0x000055a8 vaddr 0x0000c5a8 paddr 0x0000d00c align 2**12
         filesz 0x00000a64 memsz 0x00000a64 flags rw-
    LOAD off    0x00006a70 vaddr 0x0000da70 paddr 0x0000da70 align 2**12
         filesz 0x00000000 memsz 0x00000160 flags rw-

Sections:
Idx Name          Size      VMA       LMA       File off  Algn
  0 .entry        00000020  00008000  00008000  00001000  2**5
                  CONTENTS, ALLOC, LOAD, READONLY, CODE
  1 .exceptions   00000164  00008020  00008020  00001020  2**2
                  CONTENTS, ALLOC, LOAD, READONLY, CODE
  2 .text         0000434c  00008184  00008184  00001184  2**2
                  CONTENTS, ALLOC, LOAD, READONLY, CODE
  3 .rodata       000000d8  0000c4d0  0000c4d0  000054d0  2**2
                  CONTENTS, ALLOC, LOAD, READONLY, DATA
  4 .rwdata       00000a64  0000c5a8  0000d00c  000055a8  2**2
                  CONTENTS, ALLOC, LOAD, DATA, SMALL_DATA
  5 .bss          00000160  0000da70  0000da70  00006a70  2**2
                  ALLOC, SMALL_DATA
  6 .onchip_memory2_0 00000000  0000dbd0  0000dbd0  0000600c  2**0
                  CONTENTS
  7 .comment      00000023  00000000  00000000  0000600c  2**0
                  CONTENTS, READONLY
  8 .debug_aranges 000009e0  00000000  00000000  00006030  2**3
                  CONTENTS, READONLY, DEBUGGING
  9 .debug_info   00016613  00000000  00000000  00006a10  2**0
                  CONTENTS, READONLY, DEBUGGING
 10 .debug_abbrev 00006178  00000000  00000000  0001d023  2**0
                  CONTENTS, READONLY, DEBUGGING
 11 .debug_line   000066ec  00000000  00000000  0002319b  2**0
                  CONTENTS, READONLY, DEBUGGING
 12 .debug_frame  00001388  00000000  00000000  00029888  2**2
                  CONTENTS, READONLY, DEBUGGING
 13 .debug_str    0000277e  00000000  00000000  0002ac10  2**0
                  CONTENTS, READONLY, DEBUGGING
 14 .debug_loc    000054f6  00000000  00000000  0002d38e  2**0
                  CONTENTS, READONLY, DEBUGGING
 15 .debug_alt_sim_info 00000010  00000000  00000000  00032884  2**2
                  CONTENTS, READONLY, DEBUGGING
 16 .debug_ranges 00000830  00000000  00000000  00032898  2**3
                  CONTENTS, READONLY, DEBUGGING
 17 .thread_model 00000003  00000000  00000000  000354ec  2**0
                  CONTENTS, READONLY
 18 .cpu          0000000c  00000000  00000000  000354ef  2**0
                  CONTENTS, READONLY
 19 .qsys         00000001  00000000  00000000  000354fb  2**0
                  CONTENTS, READONLY
 20 .simulation_enabled 00000001  00000000  00000000  000354fc  2**0
                  CONTENTS, READONLY
 21 .stderr_dev   0000000b  00000000  00000000  000354fd  2**0
                  CONTENTS, READONLY
 22 .stdin_dev    00000006  00000000  00000000  00035508  2**0
                  CONTENTS, READONLY
 23 .stdout_dev   00000006  00000000  00000000  0003550e  2**0
                  CONTENTS, READONLY
 24 .sopc_system_name 00000006  00000000  00000000  00035514  2**0
                  CONTENTS, READONLY
 25 .sopcinfo     0005ebb0  00000000  00000000  0003551a  2**0
                  CONTENTS, READONLY
SYMBOL TABLE:
00008000 l    d  .entry	00000000 .entry
00008020 l    d  .exceptions	00000000 .exceptions
00008184 l    d  .text	00000000 .text
0000c4d0 l    d  .rodata	00000000 .rodata
0000c5a8 l    d  .rwdata	00000000 .rwdata
0000da70 l    d  .bss	00000000 .bss
0000dbd0 l    d  .onchip_memory2_0	00000000 .onchip_memory2_0
00000000 l    d  .comment	00000000 .comment
00000000 l    d  .debug_aranges	00000000 .debug_aranges
00000000 l    d  .debug_info	00000000 .debug_info
00000000 l    d  .debug_abbrev	00000000 .debug_abbrev
00000000 l    d  .debug_line	00000000 .debug_line
00000000 l    d  .debug_frame	00000000 .debug_frame
00000000 l    d  .debug_str	00000000 .debug_str
00000000 l    d  .debug_loc	00000000 .debug_loc
00000000 l    d  .debug_alt_sim_info	00000000 .debug_alt_sim_info
00000000 l    d  .debug_ranges	00000000 .debug_ranges
00000000 l    df *ABS*	00000000 hal_bsp//obj/HAL/src/crt0.o
000081bc l       .text	00000000 alt_after_alt_main
00000000 l    df *ABS*	00000000 alt_irq_handler.c
00000000 l    df *ABS*	00000000 alt_instruction_exception_entry.c
00000000 l    df *ABS*	00000000 main.c
00000000 l    df *ABS*	00000000 small_printing.c
00008514 l     F .text	00000054 put_line
00008568 l     F .text	0000002c put_space
0000da9c l     O .bss	00000009 __int2str_buf
00000000 l    df *ABS*	00000000 lib2-divmod.c
00000000 l    df *ABS*	00000000 getc.c
00000000 l    df *ABS*	00000000 impure.c
0000c5a8 l     O .rwdata	00000424 impure_data
00000000 l    df *ABS*	00000000 rget.c
00000000 l    df *ABS*	00000000 findfp.c
00008fe0 l     F .text	00000008 __fp_unlock
00008ff4 l     F .text	0000019c __sinit.part.1
00009190 l     F .text	00000008 __fp_lock
00000000 l    df *ABS*	00000000 fwalk.c
00000000 l    df *ABS*	00000000 mallocr.c
00000000 l    df *ABS*	00000000 memset.c
00000000 l    df *ABS*	00000000 refill.c
00009e4c l     F .text	0000001c lflush
00000000 l    df *ABS*	00000000 sbrkr.c
00000000 l    df *ABS*	00000000 stdio.c
00000000 l    df *ABS*	00000000 writer.c
00000000 l    df *ABS*	00000000 closer.c
00000000 l    df *ABS*	00000000 fclose.c
00000000 l    df *ABS*	00000000 fflush.c
00000000 l    df *ABS*	00000000 mallocr.c
00000000 l    df *ABS*	00000000 int_errno.c
00000000 l    df *ABS*	00000000 lseekr.c
00000000 l    df *ABS*	00000000 makebuf.c
00000000 l    df *ABS*	00000000 readr.c
00000000 l    df *ABS*	00000000 fstatr.c
00000000 l    df *ABS*	00000000 isattyr.c
00000000 l    df *ABS*	00000000 lib2-mul.c
00000000 l    df *ABS*	00000000 alt_close.c
00000000 l    df *ABS*	00000000 alt_dev.c
0000ae8c l     F .text	00000008 alt_dev_null_write
00000000 l    df *ABS*	00000000 alt_errno.c
00000000 l    df *ABS*	00000000 alt_fstat.c
00000000 l    df *ABS*	00000000 alt_isatty.c
00000000 l    df *ABS*	00000000 alt_load.c
00000000 l    df *ABS*	00000000 alt_lseek.c
00000000 l    df *ABS*	00000000 alt_main.c
00000000 l    df *ABS*	00000000 alt_malloc_lock.c
00000000 l    df *ABS*	00000000 alt_read.c
00000000 l    df *ABS*	00000000 alt_release_fd.c
00000000 l    df *ABS*	00000000 alt_sbrk.c
0000cffc l     O .rwdata	00000004 heap_end
00000000 l    df *ABS*	00000000 alt_write.c
00000000 l    df *ABS*	00000000 alt_sys_init.c
0000cfa8 l     O .rwdata	0000002c jtag_uart_0
0000cf7c l     O .rwdata	0000002c uart_0
00000000 l    df *ABS*	00000000 altera_avalon_jtag_uart_fd.c
00000000 l    df *ABS*	00000000 altera_avalon_jtag_uart_read.c
00000000 l    df *ABS*	00000000 altera_avalon_jtag_uart_write.c
00000000 l    df *ABS*	00000000 altera_avalon_timer_sc.c
0000b6bc l     F .text	0000003c alt_avalon_timer_sc_irq
00000000 l    df *ABS*	00000000 altera_avalon_uart_fd.c
00000000 l    df *ABS*	00000000 altera_avalon_uart_read.c
00000000 l    df *ABS*	00000000 altera_avalon_uart_write.c
00000000 l    df *ABS*	00000000 alt_dcache_flush_all.c
00000000 l    df *ABS*	00000000 alt_dev_llist_insert.c
00000000 l    df *ABS*	00000000 alt_do_ctors.c
00000000 l    df *ABS*	00000000 alt_do_dtors.c
00000000 l    df *ABS*	00000000 alt_icache_flush_all.c
00000000 l    df *ABS*	00000000 alt_iic.c
00000000 l    df *ABS*	00000000 alt_iic_isr_register.c
00000000 l    df *ABS*	00000000 alt_io_redirect.c
0000bac8 l     F .text	0000008c alt_open_fd.constprop.0
00000000 l    df *ABS*	00000000 alt_irq_vars.c
00000000 l    df *ABS*	00000000 alt_open.c
00000000 l    df *ABS*	00000000 alt_tick.c
00000000 l    df *ABS*	00000000 altera_nios2_gen2_irq.c
00000000 l    df *ABS*	00000000 alt_find_dev.c
00000000 l    df *ABS*	00000000 alt_find_file.c
00000000 l    df *ABS*	00000000 alt_get_fd.c
00000000 l    df *ABS*	00000000 atexit.c
00000000 l    df *ABS*	00000000 exit.c
00000000 l    df *ABS*	00000000 memcmp.c
00000000 l    df *ABS*	00000000 strlen.c
00000000 l    df *ABS*	00000000 __atexit.c
00000000 l    df *ABS*	00000000 __call_atexit.c
00000000 l    df *ABS*	00000000 alt_exit.c
0000da98 g     O .bss	00000004 alt_instruction_exception_handler
0000ad38 g     F .text	00000054 _isatty_r
0000b1fc g     F .text	00000064 alt_main
0000dad0 g     O .bss	00000100 alt_irq
0000aa60 g     F .text	00000060 _lseek_r
000085bc g     F .text	00000060 s_prints
0000d00c g       *ABS*	00000000 __flash_rwdata_start
0000dbd0 g       *ABS*	00000000 __alt_heap_start
0000a168 g     F .text	0000005c __sseek
00009340 g     F .text	00000010 __sinit
00009198 g     F .text	00000078 __sfmoreglue
0000b264 g     F .text	00000004 __malloc_unlock
00009328 g     F .text	00000018 _cleanup
00008bf8 g     F .text	000000b4 s_printlx
0000be90 g     F .text	00000008 altera_nios2_gen2_irq_init
00008000 g     F .entry	0000000c __reset
00008020 g       *ABS*	00000000 __flash_exceptions_start
0000acdc g     F .text	0000005c _fstat_r
0000da7c g     O .bss	00000004 errno
00008fcc g     F .text	00000014 __srget
0000a0e4 g     F .text	00000008 __seofread
0000da84 g     O .bss	00000004 alt_argv
00014fd4 g       *ABS*	00000000 _gp
000087a8 g     F .text	000000a8 s_putx
0000cdd4 g     O .rwdata	00000180 alt_fd_list
00008e60 g     F .text	00000070 _getc_r
00008ed0 g     F .text	00000088 getc
0000be98 g     F .text	00000078 alt_find_dev
00008fe8 g     F .text	0000000c _cleanup_r
0000bb54 g     F .text	00000074 alt_io_redirect
0000c4d0 g       *ABS*	00000000 __DTOR_END__
0000c050 g     F .text	00000074 alt_exception_cause_generated_bad_addr
0000b614 g     F .text	00000074 altera_avalon_jtag_uart_read
00008000 g       *ABS*	00000000 __alt_mem_onchip_memory2_0
00008da4 g     F .text	00000064 .hidden __udivsi3
0000af68 g     F .text	000000ac isatty
00008a88 g     F .text	000000bc s_printx
0000da78 g     O .bss	00000004 __malloc_top_pad
0000891c g     F .text	000000b0 s_printd
0000a03c g     F .text	00000054 _sbrk_r
0000ac7c g     F .text	00000060 _read_r
0000cfe4 g     O .rwdata	00000004 alt_max_fd
0000a280 g     F .text	000000f0 _fclose_r
0000a5fc g     F .text	00000030 fflush
0000da74 g     O .bss	00000004 __malloc_max_sbrked_mem
0000b128 g     F .text	000000d4 lseek
0000cfd4 g     O .rwdata	00000004 _global_impure_ptr
0000dbd0 g       *ABS*	00000000 __bss_end
0000ba60 g     F .text	00000068 alt_iic_isr_register
0000bd9c g     F .text	000000f4 alt_tick
00009360 g     F .text	00000018 __fp_lock_all
00008b44 g     F .text	000000b4 s_printb
0000ba48 g     F .text	00000018 alt_ic_irq_enabled
0000bd68 g     F .text	00000034 alt_alarm_stop
0000da8c g     O .bss	00000004 alt_irq_active
000080fc g     F .exceptions	00000064 alt_irq_handler
0000cf54 g     O .rwdata	00000028 alt_dev_null
0000b87c g     F .text	00000004 alt_dcache_flush_all
0000d00c g       *ABS*	00000000 __ram_rwdata_end
0000cfe8 g     O .rwdata	00000008 alt_dev_list
0000b448 g     F .text	00000134 write
0000c5a8 g       *ABS*	00000000 __ram_rodata_end
0000ae94 g     F .text	000000d4 fstat
00008e08 g     F .text	00000058 .hidden __umodsi3
000081c0 g     F .text	00000054 ntohl
0000dbd0 g       *ABS*	00000000 end
0000b7f0 g     F .text	0000008c altera_avalon_uart_write
00008160 g     F .exceptions	00000024 alt_instruction_exception_entry
0000c4d0 g       *ABS*	00000000 __CTOR_LIST__
00010000 g       *ABS*	00000000 __alt_stack_pointer
0000b6f8 g     F .text	00000050 alt_avalon_timer_sc_init
0000b758 g     F .text	00000010 altera_avalon_uart_write_fd
0000b688 g     F .text	00000034 altera_avalon_jtag_uart_write
00009350 g     F .text	00000004 __sfp_lock_acquire
0000861c g     F .text	000000ac __int2strn
0000a750 g     F .text	00000310 _free_r
0000c33c g     F .text	00000180 __call_exitprocs
00008f58 g     F .text	00000074 __srget_r
0000cfdc g     O .rwdata	00000004 __malloc_sbrk_base
00008184 g     F .text	0000003c _start
0000da94 g     O .bss	00000004 _alt_tick_rate
0000da90 g     O .bss	00000004 _alt_nticks
0000b268 g     F .text	00000138 read
0000b59c g     F .text	00000058 alt_sys_init
0000c224 g     F .text	00000118 __register_exitproc
0000ad8c g     F .text	00000028 .hidden __mulsi3
0000c5a8 g       *ABS*	00000000 __ram_rwdata_start
0000c4d0 g       *ABS*	00000000 __ram_rodata_start
0000daa8 g     O .bss	00000028 __malloc_current_mallinfo
000089cc g     F .text	000000bc s_printl
0000b5f4 g     F .text	00000010 altera_avalon_jtag_uart_read_fd
0000bfc0 g     F .text	00000090 alt_get_fd
0000a22c g     F .text	00000054 _close_r
0000c110 g     F .text	0000007c memcmp
0000dbd0 g       *ABS*	00000000 __alt_stack_base
00009210 g     F .text	00000118 __sfp
00008594 g     F .text	00000028 putf
0000c9cc g     O .rwdata	00000408 __malloc_av_
0000935c g     F .text	00000004 __sinit_lock_release
0000a090 g     F .text	00000054 __sread
0000bf10 g     F .text	000000b0 alt_find_file
0000b880 g     F .text	00000078 alt_dev_llist_insert
000086c8 g     F .text	000000e0 s_putd
0000b260 g     F .text	00000004 __malloc_lock
0000b3fc g     F .text	0000004c sbrk
0000a5a0 g     F .text	0000005c _fflush_r
0000da70 g       *ABS*	00000000 __bss_start
00009d24 g     F .text	00000128 memset
00008214 g     F .text	00000044 cg_write
000084f0 g     F .text	00000024 main
0000da80 g     O .bss	00000004 alt_envp
0000da70 g     O .bss	00000004 __malloc_max_total_mem
0000b604 g     F .text	00000010 altera_avalon_jtag_uart_write_fd
00008850 g     F .text	000000cc dump_hex
0000a1c4 g     F .text	00000008 __sclose
00010000 g       *ABS*	00000000 __alt_heap_limit
0000a370 g     F .text	00000014 fclose
00009518 g     F .text	0000080c _malloc_r
0000cff8 g     O .rwdata	00000004 alt_errno
00009390 g     F .text	000000c4 _fwalk
00008cac g     F .text	00000084 .hidden __divsi3
0000a62c g     F .text	00000124 _malloc_trim_r
0000c4d0 g       *ABS*	00000000 __CTOR_END__
0000c4d0 g       *ABS*	00000000 __flash_rodata_start
0000c4d0 g       *ABS*	00000000 __DTOR_LIST__
0000b57c g     F .text	00000020 alt_irq_init
0000b3a0 g     F .text	0000005c alt_release_fd
0000c0c4 g     F .text	00000014 atexit
0000a1cc g     F .text	00000060 _write_r
000082d8 g     F .text	00000218 handle_transaction
0000cfd8 g     O .rwdata	00000004 _impure_ptr
0000da88 g     O .bss	00000004 alt_argc
0000a384 g     F .text	0000021c __sflush_r
0000b95c g     F .text	00000064 _do_dtors
00009e68 g     F .text	000001d4 __srefill_r
00008020 g       .exceptions	00000000 alt_irq_entry
00009378 g     F .text	00000018 __fp_unlock_all
0000cff0 g     O .rwdata	00000008 alt_fs_list
00008020 g       *ABS*	00000000 __ram_exceptions_start
0000b9c4 g     F .text	00000004 alt_ic_isr_register
0000d00c g       *ABS*	00000000 _edata
0000b748 g     F .text	00000010 altera_avalon_uart_read_fd
0000dbd0 g       *ABS*	00000000 _end
00008184 g       *ABS*	00000000 __ram_exceptions_end
0000ba08 g     F .text	00000040 alt_ic_irq_disable
0000a0ec g     F .text	0000007c __swrite
0000cfe0 g     O .rwdata	00000004 __malloc_trim_threshold
0000c0d8 g     F .text	00000038 exit
00009454 g     F .text	000000c4 _fwalk_reent
00008d30 g     F .text	00000074 .hidden __modsi3
00010000 g       *ABS*	00000000 __alt_data_end
00008020 g     F .exceptions	00000000 alt_exception
00009354 g     F .text	00000004 __sfp_lock_release
00008258 g     F .text	00000080 cg_read
0000c4bc g     F .text	00000014 _exit
0000aac0 g     F .text	000001bc __smakebuf_r
0000c18c g     F .text	00000098 strlen
0000bbc8 g     F .text	000001a0 open
0000b9c0 g     F .text	00000004 alt_icache_flush_all
0000d000 g     O .rwdata	00000004 alt_priority_mask
0000b9c8 g     F .text	00000040 alt_ic_irq_enable
0000b768 g     F .text	00000088 altera_avalon_uart_read
0000d004 g     O .rwdata	00000008 alt_alarm_list
0000b8f8 g     F .text	00000064 _do_ctors
0000adb4 g     F .text	000000d8 close
0000b014 g     F .text	00000114 alt_load
00009358 g     F .text	00000004 __sinit_lock_acquire



Disassembly of section .entry:

00008000 <__reset>:
    8000:	00400034 	movhi	at,0
    8004:	08606114 	ori	at,at,33156
    8008:	0800683a 	jmp	at
	...

Disassembly of section .exceptions:

00008020 <alt_exception>:
    8020:	deffed04 	addi	sp,sp,-76
    8024:	dfc00015 	stw	ra,0(sp)
    8028:	d8400215 	stw	at,8(sp)
    802c:	d8800315 	stw	r2,12(sp)
    8030:	d8c00415 	stw	r3,16(sp)
    8034:	d9000515 	stw	r4,20(sp)
    8038:	d9400615 	stw	r5,24(sp)
    803c:	d9800715 	stw	r6,28(sp)
    8040:	d9c00815 	stw	r7,32(sp)
    8044:	000b307a 	rdctl	r5,estatus
    8048:	da000915 	stw	r8,36(sp)
    804c:	da400a15 	stw	r9,40(sp)
    8050:	da800b15 	stw	r10,44(sp)
    8054:	dac00c15 	stw	r11,48(sp)
    8058:	db000d15 	stw	r12,52(sp)
    805c:	db400e15 	stw	r13,56(sp)
    8060:	db800f15 	stw	r14,60(sp)
    8064:	dbc01015 	stw	r15,64(sp)
    8068:	d9401115 	stw	r5,68(sp)
    806c:	ebffff04 	addi	r15,ea,-4
    8070:	dbc01215 	stw	r15,72(sp)
    8074:	0009313a 	rdctl	r4,ipending
    8078:	2880004c 	andi	r2,r5,1
    807c:	10000326 	beq	r2,zero,808c <alt_exception+0x6c>
    8080:	20000226 	beq	r4,zero,808c <alt_exception+0x6c>
    8084:	00080fc0 	call	80fc <alt_irq_handler>
    8088:	00000706 	br	80a8 <alt_exception+0x88>
    808c:	df401215 	stw	ea,72(sp)
    8090:	e8bfff17 	ldw	r2,-4(ea)
    8094:	e93fff04 	addi	r4,ea,-4
    8098:	00081600 	call	8160 <alt_instruction_exception_entry>
    809c:	1000021e 	bne	r2,zero,80a8 <alt_exception+0x88>
    80a0:	ebffff04 	addi	r15,ea,-4
    80a4:	dbc01215 	stw	r15,72(sp)
    80a8:	d9401117 	ldw	r5,68(sp)
    80ac:	df401217 	ldw	ea,72(sp)
    80b0:	dfc00017 	ldw	ra,0(sp)
    80b4:	2801707a 	wrctl	estatus,r5
    80b8:	d8400217 	ldw	at,8(sp)
    80bc:	d8800317 	ldw	r2,12(sp)
    80c0:	d8c00417 	ldw	r3,16(sp)
    80c4:	d9000517 	ldw	r4,20(sp)
    80c8:	d9400617 	ldw	r5,24(sp)
    80cc:	d9800717 	ldw	r6,28(sp)
    80d0:	d9c00817 	ldw	r7,32(sp)
    80d4:	da000917 	ldw	r8,36(sp)
    80d8:	da400a17 	ldw	r9,40(sp)
    80dc:	da800b17 	ldw	r10,44(sp)
    80e0:	dac00c17 	ldw	r11,48(sp)
    80e4:	db000d17 	ldw	r12,52(sp)
    80e8:	db400e17 	ldw	r13,56(sp)
    80ec:	db800f17 	ldw	r14,60(sp)
    80f0:	dbc01017 	ldw	r15,64(sp)
    80f4:	dec01304 	addi	sp,sp,76
    80f8:	ef80083a 	eret

000080fc <alt_irq_handler>:
    80fc:	defffe04 	addi	sp,sp,-8
    8100:	dfc00115 	stw	ra,4(sp)
    8104:	dc000015 	stw	r16,0(sp)
    8108:	000b313a 	rdctl	r5,ipending
    810c:	04000074 	movhi	r16,1
    8110:	8436b404 	addi	r16,r16,-9520
    8114:	2880004c 	andi	r2,r5,1
    8118:	0007883a 	mov	r3,zero
    811c:	1000051e 	bne	r2,zero,8134 <alt_irq_handler+0x38>
    8120:	00800044 	movi	r2,1
    8124:	1085883a 	add	r2,r2,r2
    8128:	2888703a 	and	r4,r5,r2
    812c:	18c00044 	addi	r3,r3,1
    8130:	203ffc26 	beq	r4,zero,8124 <alt_irq_handler+0x28>
    8134:	180690fa 	slli	r3,r3,3
    8138:	80c7883a 	add	r3,r16,r3
    813c:	18800017 	ldw	r2,0(r3)
    8140:	19000117 	ldw	r4,4(r3)
    8144:	103ee83a 	callr	r2
    8148:	000b313a 	rdctl	r5,ipending
    814c:	283ff11e 	bne	r5,zero,8114 <alt_irq_handler+0x18>
    8150:	dfc00117 	ldw	ra,4(sp)
    8154:	dc000017 	ldw	r16,0(sp)
    8158:	dec00204 	addi	sp,sp,8
    815c:	f800283a 	ret

00008160 <alt_instruction_exception_entry>:
    8160:	d0a2b117 	ldw	r2,-30012(gp)
    8164:	10000426 	beq	r2,zero,8178 <alt_instruction_exception_entry+0x18>
    8168:	200b883a 	mov	r5,r4
    816c:	000d883a 	mov	r6,zero
    8170:	013fffc4 	movi	r4,-1
    8174:	1000683a 	jmp	r2
    8178:	003da03a 	break	0
    817c:	0005883a 	mov	r2,zero
    8180:	f800283a 	ret

Disassembly of section .text:

00008184 <_start>:
    8184:	06c00074 	movhi	sp,1
    8188:	dec00014 	ori	sp,sp,0
    818c:	06800074 	movhi	gp,1
    8190:	d693f514 	ori	gp,gp,20436
    8194:	00800034 	movhi	r2,0
    8198:	10b69c14 	ori	r2,r2,55920
    819c:	00c00034 	movhi	r3,0
    81a0:	18f6f414 	ori	r3,r3,56272
    81a4:	10c00326 	beq	r2,r3,81b4 <_start+0x30>
    81a8:	10000015 	stw	zero,0(r2)
    81ac:	10800104 	addi	r2,r2,4
    81b0:	10fffd36 	bltu	r2,r3,81a8 <_start+0x24>
    81b4:	000b0140 	call	b014 <alt_load>
    81b8:	000b1fc0 	call	b1fc <alt_main>

000081bc <alt_after_alt_main>:
    81bc:	003fff06 	br	81bc <alt_after_alt_main>

000081c0 <ntohl>:
    81c0:	defffe04 	addi	sp,sp,-8
    81c4:	df000115 	stw	fp,4(sp)
    81c8:	df000104 	addi	fp,sp,4
    81cc:	e13fff15 	stw	r4,-4(fp)
    81d0:	e0bfff17 	ldw	r2,-4(fp)
    81d4:	1006963a 	slli	r3,r2,24
    81d8:	e0bfff17 	ldw	r2,-4(fp)
    81dc:	10bfc00c 	andi	r2,r2,65280
    81e0:	1004923a 	slli	r2,r2,8
    81e4:	1886b03a 	or	r3,r3,r2
    81e8:	e0bfff17 	ldw	r2,-4(fp)
    81ec:	10803fec 	andhi	r2,r2,255
    81f0:	1004d23a 	srli	r2,r2,8
    81f4:	1886b03a 	or	r3,r3,r2
    81f8:	e0bfff17 	ldw	r2,-4(fp)
    81fc:	1004d63a 	srli	r2,r2,24
    8200:	1884b03a 	or	r2,r3,r2
    8204:	e037883a 	mov	sp,fp
    8208:	df000017 	ldw	fp,0(sp)
    820c:	dec00104 	addi	sp,sp,4
    8210:	f800283a 	ret

00008214 <cg_write>:
    8214:	defffc04 	addi	sp,sp,-16
    8218:	dfc00315 	stw	ra,12(sp)
    821c:	df000215 	stw	fp,8(sp)
    8220:	df000204 	addi	fp,sp,8
    8224:	e13ffe15 	stw	r4,-8(fp)
    8228:	e17fff15 	stw	r5,-4(fp)
    822c:	e0bfff17 	ldw	r2,-4(fp)
    8230:	100d883a 	mov	r6,r2
    8234:	e17ffe17 	ldw	r5,-8(fp)
    8238:	01000044 	movi	r4,1
    823c:	000b4480 	call	b448 <write>
    8240:	0001883a 	nop
    8244:	e037883a 	mov	sp,fp
    8248:	dfc00117 	ldw	ra,4(sp)
    824c:	df000017 	ldw	fp,0(sp)
    8250:	dec00204 	addi	sp,sp,8
    8254:	f800283a 	ret

00008258 <cg_read>:
    8258:	defffa04 	addi	sp,sp,-24
    825c:	dfc00515 	stw	ra,20(sp)
    8260:	df000415 	stw	fp,16(sp)
    8264:	dc000315 	stw	r16,12(sp)
    8268:	df000404 	addi	fp,sp,16
    826c:	e13ffd15 	stw	r4,-12(fp)
    8270:	e17ffe15 	stw	r5,-8(fp)
    8274:	e03ffc15 	stw	zero,-16(fp)
    8278:	00000d06 	br	82b0 <cg_read+0x58>
    827c:	e0bffc17 	ldw	r2,-16(fp)
    8280:	e0fffd17 	ldw	r3,-12(fp)
    8284:	18a1883a 	add	r16,r3,r2
    8288:	00800074 	movhi	r2,1
    828c:	10b3f604 	addi	r2,r2,-12328
    8290:	10800017 	ldw	r2,0(r2)
    8294:	10800117 	ldw	r2,4(r2)
    8298:	1009883a 	mov	r4,r2
    829c:	0008ed00 	call	8ed0 <getc>
    82a0:	80800005 	stb	r2,0(r16)
    82a4:	e0bffc17 	ldw	r2,-16(fp)
    82a8:	10800044 	addi	r2,r2,1
    82ac:	e0bffc15 	stw	r2,-16(fp)
    82b0:	e0fffc17 	ldw	r3,-16(fp)
    82b4:	e0bffe17 	ldw	r2,-8(fp)
    82b8:	18bff016 	blt	r3,r2,827c <cg_read+0x24>
    82bc:	0001883a 	nop
    82c0:	e6ffff04 	addi	sp,fp,-4
    82c4:	dfc00217 	ldw	ra,8(sp)
    82c8:	df000117 	ldw	fp,4(sp)
    82cc:	dc000017 	ldw	r16,0(sp)
    82d0:	dec00304 	addi	sp,sp,12
    82d4:	f800283a 	ret

000082d8 <handle_transaction>:
    82d8:	defff704 	addi	sp,sp,-36
    82dc:	dfc00815 	stw	ra,32(sp)
    82e0:	df000715 	stw	fp,28(sp)
    82e4:	df000704 	addi	fp,sp,28
    82e8:	e03ffe15 	stw	zero,-8(fp)
    82ec:	e0bffb04 	addi	r2,fp,-20
    82f0:	01400104 	movi	r5,4
    82f4:	1009883a 	mov	r4,r2
    82f8:	00082580 	call	8258 <cg_read>
    82fc:	e0bffb17 	ldw	r2,-20(fp)
    8300:	1009883a 	mov	r4,r2
    8304:	00081c00 	call	81c0 <ntohl>
    8308:	e0bffb15 	stw	r2,-20(fp)
    830c:	e0bffb04 	addi	r2,fp,-20
    8310:	10800104 	addi	r2,r2,4
    8314:	01400104 	movi	r5,4
    8318:	1009883a 	mov	r4,r2
    831c:	00082580 	call	8258 <cg_read>
    8320:	e0bffc17 	ldw	r2,-16(fp)
    8324:	1009883a 	mov	r4,r2
    8328:	00081c00 	call	81c0 <ntohl>
    832c:	e0bffc15 	stw	r2,-16(fp)
    8330:	e0bffb04 	addi	r2,fp,-20
    8334:	10800204 	addi	r2,r2,8
    8338:	01400104 	movi	r5,4
    833c:	1009883a 	mov	r4,r2
    8340:	00082580 	call	8258 <cg_read>
    8344:	e0bffd17 	ldw	r2,-12(fp)
    8348:	1009883a 	mov	r4,r2
    834c:	00081c00 	call	81c0 <ntohl>
    8350:	e0bffd15 	stw	r2,-12(fp)
    8354:	e0bffb17 	ldw	r2,-20(fp)
    8358:	100d883a 	mov	r6,r2
    835c:	01400044 	movi	r5,1
    8360:	01000074 	movhi	r4,1
    8364:	21313404 	addi	r4,r4,-15152
    8368:	0008a880 	call	8a88 <s_printx>
    836c:	e0bffc17 	ldw	r2,-16(fp)
    8370:	100d883a 	mov	r6,r2
    8374:	01400044 	movi	r5,1
    8378:	01000074 	movhi	r4,1
    837c:	21313704 	addi	r4,r4,-15140
    8380:	0008a880 	call	8a88 <s_printx>
    8384:	e0bffd17 	ldw	r2,-12(fp)
    8388:	100d883a 	mov	r6,r2
    838c:	01400044 	movi	r5,1
    8390:	01000074 	movhi	r4,1
    8394:	21313a04 	addi	r4,r4,-15128
    8398:	0008a880 	call	8a88 <s_printx>
    839c:	e0bffc17 	ldw	r2,-16(fp)
    83a0:	e0bff915 	stw	r2,-28(fp)
    83a4:	e0bffd17 	ldw	r2,-12(fp)
    83a8:	e0bffa15 	stw	r2,-24(fp)
    83ac:	e0bffb17 	ldw	r2,-20(fp)
    83b0:	10c00060 	cmpeqi	r3,r2,1
    83b4:	18000a1e 	bne	r3,zero,83e0 <handle_transaction+0x108>
    83b8:	0080052e 	bgeu	zero,r2,83d0 <handle_transaction+0xf8>
    83bc:	10c000a0 	cmpeqi	r3,r2,2
    83c0:	1800171e 	bne	r3,zero,8420 <handle_transaction+0x148>
    83c4:	108000e0 	cmpeqi	r2,r2,3
    83c8:	1000321e 	bne	r2,zero,8494 <handle_transaction+0x1bc>
    83cc:	00003506 	br	84a4 <handle_transaction+0x1cc>
    83d0:	01000074 	movhi	r4,1
    83d4:	21313d04 	addi	r4,r4,-15116
    83d8:	00085bc0 	call	85bc <s_prints>
    83dc:	00003606 	br	84b8 <handle_transaction+0x1e0>
    83e0:	e1fff917 	ldw	r7,-28(fp)
    83e4:	e1bffa17 	ldw	r6,-24(fp)
    83e8:	01400084 	movi	r5,2
    83ec:	01000074 	movhi	r4,1
    83f0:	21314204 	addi	r4,r4,-15096
    83f4:	0008a880 	call	8a88 <s_printx>
    83f8:	e0bff917 	ldw	r2,-28(fp)
    83fc:	1085883a 	add	r2,r2,r2
    8400:	1085883a 	add	r2,r2,r2
    8404:	1007883a 	mov	r3,r2
    8408:	00800074 	movhi	r2,1
    840c:	10840004 	addi	r2,r2,4096
    8410:	1885883a 	add	r2,r3,r2
    8414:	e0fffa17 	ldw	r3,-24(fp)
    8418:	10c00015 	stw	r3,0(r2)
    841c:	00002606 	br	84b8 <handle_transaction+0x1e0>
    8420:	e0bff917 	ldw	r2,-28(fp)
    8424:	1085883a 	add	r2,r2,r2
    8428:	1085883a 	add	r2,r2,r2
    842c:	1007883a 	mov	r3,r2
    8430:	00800074 	movhi	r2,1
    8434:	10840004 	addi	r2,r2,4096
    8438:	1885883a 	add	r2,r3,r2
    843c:	10800017 	ldw	r2,0(r2)
    8440:	e0bfff15 	stw	r2,-4(fp)
    8444:	e0bfff17 	ldw	r2,-4(fp)
    8448:	1009883a 	mov	r4,r2
    844c:	00081c00 	call	81c0 <ntohl>
    8450:	e0bfff15 	stw	r2,-4(fp)
    8454:	e0bfff17 	ldw	r2,-4(fp)
    8458:	e1fff917 	ldw	r7,-28(fp)
    845c:	100d883a 	mov	r6,r2
    8460:	01400084 	movi	r5,2
    8464:	01000074 	movhi	r4,1
    8468:	21314704 	addi	r4,r4,-15076
    846c:	0008a880 	call	8a88 <s_printx>
    8470:	e0bffe04 	addi	r2,fp,-8
    8474:	01400104 	movi	r5,4
    8478:	1009883a 	mov	r4,r2
    847c:	00082140 	call	8214 <cg_write>
    8480:	e0bfff04 	addi	r2,fp,-4
    8484:	01400104 	movi	r5,4
    8488:	1009883a 	mov	r4,r2
    848c:	00082140 	call	8214 <cg_write>
    8490:	00001206 	br	84dc <handle_transaction+0x204>
    8494:	01000074 	movhi	r4,1
    8498:	21314b04 	addi	r4,r4,-15060
    849c:	00085bc0 	call	85bc <s_prints>
    84a0:	00000506 	br	84b8 <handle_transaction+0x1e0>
    84a4:	01000074 	movhi	r4,1
    84a8:	21315004 	addi	r4,r4,-15040
    84ac:	00085bc0 	call	85bc <s_prints>
    84b0:	00800044 	movi	r2,1
    84b4:	e0bffe15 	stw	r2,-8(fp)
    84b8:	e0bffe17 	ldw	r2,-8(fp)
    84bc:	1009883a 	mov	r4,r2
    84c0:	00081c00 	call	81c0 <ntohl>
    84c4:	e0bffe15 	stw	r2,-8(fp)
    84c8:	e0bffe04 	addi	r2,fp,-8
    84cc:	01400104 	movi	r5,4
    84d0:	1009883a 	mov	r4,r2
    84d4:	00082140 	call	8214 <cg_write>
    84d8:	0001883a 	nop
    84dc:	e037883a 	mov	sp,fp
    84e0:	dfc00117 	ldw	ra,4(sp)
    84e4:	df000017 	ldw	fp,0(sp)
    84e8:	dec00204 	addi	sp,sp,8
    84ec:	f800283a 	ret

000084f0 <main>:
    84f0:	defffe04 	addi	sp,sp,-8
    84f4:	dfc00115 	stw	ra,4(sp)
    84f8:	df000015 	stw	fp,0(sp)
    84fc:	d839883a 	mov	fp,sp
    8500:	01000074 	movhi	r4,1
    8504:	21315504 	addi	r4,r4,-15020
    8508:	00085bc0 	call	85bc <s_prints>
    850c:	00082d80 	call	82d8 <handle_transaction>
    8510:	003ffe06 	br	850c <main+0x1c>

00008514 <put_line>:
    8514:	defffd04 	addi	sp,sp,-12
    8518:	dc000115 	stw	r16,4(sp)
    851c:	04000074 	movhi	r16,1
    8520:	dfc00215 	stw	ra,8(sp)
    8524:	84315804 	addi	r16,r16,-15008
    8528:	00800344 	movi	r2,13
    852c:	01800044 	movi	r6,1
    8530:	d80b883a 	mov	r5,sp
    8534:	01000084 	movi	r4,2
    8538:	84000044 	addi	r16,r16,1
    853c:	d8800005 	stb	r2,0(sp)
    8540:	000b4480 	call	b448 <write>
    8544:	80800003 	ldbu	r2,0(r16)
    8548:	10c03fcc 	andi	r3,r2,255
    854c:	18c0201c 	xori	r3,r3,128
    8550:	18ffe004 	addi	r3,r3,-128
    8554:	183ff51e 	bne	r3,zero,852c <put_line+0x18>
    8558:	dfc00217 	ldw	ra,8(sp)
    855c:	dc000117 	ldw	r16,4(sp)
    8560:	dec00304 	addi	sp,sp,12
    8564:	f800283a 	ret

00008568 <put_space>:
    8568:	defffe04 	addi	sp,sp,-8
    856c:	01800044 	movi	r6,1
    8570:	d80b883a 	mov	r5,sp
    8574:	01000084 	movi	r4,2
    8578:	00800804 	movi	r2,32
    857c:	dfc00115 	stw	ra,4(sp)
    8580:	d8800005 	stb	r2,0(sp)
    8584:	000b4480 	call	b448 <write>
    8588:	dfc00117 	ldw	ra,4(sp)
    858c:	dec00204 	addi	sp,sp,8
    8590:	f800283a 	ret

00008594 <putf>:
    8594:	defffe04 	addi	sp,sp,-8
    8598:	d9000005 	stb	r4,0(sp)
    859c:	01800044 	movi	r6,1
    85a0:	d80b883a 	mov	r5,sp
    85a4:	01000084 	movi	r4,2
    85a8:	dfc00115 	stw	ra,4(sp)
    85ac:	000b4480 	call	b448 <write>
    85b0:	dfc00117 	ldw	ra,4(sp)
    85b4:	dec00204 	addi	sp,sp,8
    85b8:	f800283a 	ret

000085bc <s_prints>:
    85bc:	20800003 	ldbu	r2,0(r4)
    85c0:	10c03fcc 	andi	r3,r2,255
    85c4:	18c0201c 	xori	r3,r3,128
    85c8:	18ffe004 	addi	r3,r3,-128
    85cc:	18001226 	beq	r3,zero,8618 <s_prints+0x5c>
    85d0:	defffd04 	addi	sp,sp,-12
    85d4:	dc000115 	stw	r16,4(sp)
    85d8:	dfc00215 	stw	ra,8(sp)
    85dc:	2021883a 	mov	r16,r4
    85e0:	01800044 	movi	r6,1
    85e4:	d80b883a 	mov	r5,sp
    85e8:	01000084 	movi	r4,2
    85ec:	84000044 	addi	r16,r16,1
    85f0:	d8800005 	stb	r2,0(sp)
    85f4:	000b4480 	call	b448 <write>
    85f8:	80800003 	ldbu	r2,0(r16)
    85fc:	10c03fcc 	andi	r3,r2,255
    8600:	18c0201c 	xori	r3,r3,128
    8604:	18ffe004 	addi	r3,r3,-128
    8608:	183ff51e 	bne	r3,zero,85e0 <s_prints+0x24>
    860c:	dfc00217 	ldw	ra,8(sp)
    8610:	dc000117 	ldw	r16,4(sp)
    8614:	dec00304 	addi	sp,sp,12
    8618:	f800283a 	ret

0000861c <__int2strn>:
    861c:	defffb04 	addi	sp,sp,-20
    8620:	dc400115 	stw	r17,4(sp)
    8624:	dfc00415 	stw	ra,16(sp)
    8628:	04400074 	movhi	r17,1
    862c:	dcc00315 	stw	r19,12(sp)
    8630:	dc800215 	stw	r18,8(sp)
    8634:	dc000015 	stw	r16,0(sp)
    8638:	8c76a704 	addi	r17,r17,-9572
    863c:	20001e16 	blt	r4,zero,86b8 <__int2strn+0x9c>
    8640:	2021883a 	mov	r16,r4
    8644:	2c803fcc 	andi	r18,r5,255
    8648:	2005883a 	mov	r2,r4
    864c:	900b883a 	mov	r5,r18
    8650:	1009883a 	mov	r4,r2
    8654:	0008da40 	call	8da4 <__udivsi3>
    8658:	103ffc1e 	bne	r2,zero,864c <__int2strn+0x30>
    865c:	04c00074 	movhi	r19,1
    8660:	9cf15904 	addi	r19,r19,-15004
    8664:	88000005 	stb	zero,0(r17)
    8668:	8009883a 	mov	r4,r16
    866c:	900b883a 	mov	r5,r18
    8670:	0008e080 	call	8e08 <__umodsi3>
    8674:	9885883a 	add	r2,r19,r2
    8678:	10800003 	ldbu	r2,0(r2)
    867c:	8c7fffc4 	addi	r17,r17,-1
    8680:	8009883a 	mov	r4,r16
    8684:	900b883a 	mov	r5,r18
    8688:	88800005 	stb	r2,0(r17)
    868c:	0008da40 	call	8da4 <__udivsi3>
    8690:	1021883a 	mov	r16,r2
    8694:	103ff41e 	bne	r2,zero,8668 <__int2strn+0x4c>
    8698:	8805883a 	mov	r2,r17
    869c:	dfc00417 	ldw	ra,16(sp)
    86a0:	dcc00317 	ldw	r19,12(sp)
    86a4:	dc800217 	ldw	r18,8(sp)
    86a8:	dc400117 	ldw	r17,4(sp)
    86ac:	dc000017 	ldw	r16,0(sp)
    86b0:	dec00504 	addi	sp,sp,20
    86b4:	f800283a 	ret
    86b8:	00800b44 	movi	r2,45
    86bc:	88800005 	stb	r2,0(r17)
    86c0:	8c400044 	addi	r17,r17,1
    86c4:	003fde06 	br	8640 <__int2strn+0x24>

000086c8 <s_putd>:
    86c8:	defffa04 	addi	sp,sp,-24
    86cc:	dc800315 	stw	r18,12(sp)
    86d0:	dc000115 	stw	r16,4(sp)
    86d4:	dfc00515 	stw	ra,20(sp)
    86d8:	04000074 	movhi	r16,1
    86dc:	dcc00415 	stw	r19,16(sp)
    86e0:	dc400215 	stw	r17,8(sp)
    86e4:	2025883a 	mov	r18,r4
    86e8:	8436a704 	addi	r16,r16,-9572
    86ec:	20002a16 	blt	r4,zero,8798 <s_putd+0xd0>
    86f0:	9005883a 	mov	r2,r18
    86f4:	01400284 	movi	r5,10
    86f8:	1009883a 	mov	r4,r2
    86fc:	0008da40 	call	8da4 <__udivsi3>
    8700:	103ffc1e 	bne	r2,zero,86f4 <s_putd+0x2c>
    8704:	04c00074 	movhi	r19,1
    8708:	9cf15904 	addi	r19,r19,-15004
    870c:	80000005 	stb	zero,0(r16)
    8710:	9009883a 	mov	r4,r18
    8714:	01400284 	movi	r5,10
    8718:	0008e080 	call	8e08 <__umodsi3>
    871c:	9885883a 	add	r2,r19,r2
    8720:	14400003 	ldbu	r17,0(r2)
    8724:	843fffc4 	addi	r16,r16,-1
    8728:	9009883a 	mov	r4,r18
    872c:	01400284 	movi	r5,10
    8730:	84400005 	stb	r17,0(r16)
    8734:	0008da40 	call	8da4 <__udivsi3>
    8738:	1025883a 	mov	r18,r2
    873c:	103ff41e 	bne	r2,zero,8710 <s_putd+0x48>
    8740:	88803fcc 	andi	r2,r17,255
    8744:	1080201c 	xori	r2,r2,128
    8748:	10bfe004 	addi	r2,r2,-128
    874c:	10000b26 	beq	r2,zero,877c <s_putd+0xb4>
    8750:	84000044 	addi	r16,r16,1
    8754:	01800044 	movi	r6,1
    8758:	d80b883a 	mov	r5,sp
    875c:	01000084 	movi	r4,2
    8760:	dc400005 	stb	r17,0(sp)
    8764:	000b4480 	call	b448 <write>
    8768:	84400003 	ldbu	r17,0(r16)
    876c:	88803fcc 	andi	r2,r17,255
    8770:	1080201c 	xori	r2,r2,128
    8774:	10bfe004 	addi	r2,r2,-128
    8778:	103ff51e 	bne	r2,zero,8750 <s_putd+0x88>
    877c:	dfc00517 	ldw	ra,20(sp)
    8780:	dcc00417 	ldw	r19,16(sp)
    8784:	dc800317 	ldw	r18,12(sp)
    8788:	dc400217 	ldw	r17,8(sp)
    878c:	dc000117 	ldw	r16,4(sp)
    8790:	dec00604 	addi	sp,sp,24
    8794:	f800283a 	ret
    8798:	00800b44 	movi	r2,45
    879c:	80800005 	stb	r2,0(r16)
    87a0:	84000044 	addi	r16,r16,1
    87a4:	003fd206 	br	86f0 <s_putd+0x28>

000087a8 <s_putx>:
    87a8:	defffd04 	addi	sp,sp,-12
    87ac:	dc000115 	stw	r16,4(sp)
    87b0:	dfc00215 	stw	ra,8(sp)
    87b4:	04000074 	movhi	r16,1
    87b8:	8436a704 	addi	r16,r16,-9572
    87bc:	20002016 	blt	r4,zero,8840 <s_putx+0x98>
    87c0:	2005883a 	mov	r2,r4
    87c4:	1004d13a 	srli	r2,r2,4
    87c8:	103ffe1e 	bne	r2,zero,87c4 <s_putx+0x1c>
    87cc:	00c00074 	movhi	r3,1
    87d0:	18f15904 	addi	r3,r3,-15004
    87d4:	80000005 	stb	zero,0(r16)
    87d8:	208003cc 	andi	r2,r4,15
    87dc:	10c5883a 	add	r2,r2,r3
    87e0:	10800003 	ldbu	r2,0(r2)
    87e4:	2008d13a 	srli	r4,r4,4
    87e8:	843fffc4 	addi	r16,r16,-1
    87ec:	80800005 	stb	r2,0(r16)
    87f0:	203ff91e 	bne	r4,zero,87d8 <s_putx+0x30>
    87f4:	10c03fcc 	andi	r3,r2,255
    87f8:	18c0201c 	xori	r3,r3,128
    87fc:	18ffe004 	addi	r3,r3,-128
    8800:	18000b26 	beq	r3,zero,8830 <s_putx+0x88>
    8804:	01800044 	movi	r6,1
    8808:	d80b883a 	mov	r5,sp
    880c:	01000084 	movi	r4,2
    8810:	84000044 	addi	r16,r16,1
    8814:	d8800005 	stb	r2,0(sp)
    8818:	000b4480 	call	b448 <write>
    881c:	80800003 	ldbu	r2,0(r16)
    8820:	10c03fcc 	andi	r3,r2,255
    8824:	18c0201c 	xori	r3,r3,128
    8828:	18ffe004 	addi	r3,r3,-128
    882c:	183ff51e 	bne	r3,zero,8804 <s_putx+0x5c>
    8830:	dfc00217 	ldw	ra,8(sp)
    8834:	dc000117 	ldw	r16,4(sp)
    8838:	dec00304 	addi	sp,sp,12
    883c:	f800283a 	ret
    8840:	00800b44 	movi	r2,45
    8844:	80800005 	stb	r2,0(r16)
    8848:	84000044 	addi	r16,r16,1
    884c:	003fdc06 	br	87c0 <s_putx+0x18>

00008850 <dump_hex>:
    8850:	defffa04 	addi	sp,sp,-24
    8854:	dfc00515 	stw	ra,20(sp)
    8858:	dcc00415 	stw	r19,16(sp)
    885c:	dc800315 	stw	r18,12(sp)
    8860:	dc400215 	stw	r17,8(sp)
    8864:	dc000115 	stw	r16,4(sp)
    8868:	28803fcc 	andi	r2,r5,255
    886c:	10001626 	beq	r2,zero,88c8 <dump_hex+0x78>
    8870:	2c7fffc4 	addi	r17,r5,-1
    8874:	8c403fcc 	andi	r17,r17,255
    8878:	8c400044 	addi	r17,r17,1
    887c:	2021883a 	mov	r16,r4
    8880:	2463883a 	add	r17,r4,r17
    8884:	048003c4 	movi	r18,15
    8888:	04c00c04 	movi	r19,48
    888c:	00000306 	br	889c <dump_hex+0x4c>
    8890:	84000044 	addi	r16,r16,1
    8894:	00087a80 	call	87a8 <s_putx>
    8898:	8c000b26 	beq	r17,r16,88c8 <dump_hex+0x78>
    889c:	81000003 	ldbu	r4,0(r16)
    88a0:	913ffb36 	bltu	r18,r4,8890 <dump_hex+0x40>
    88a4:	01800044 	movi	r6,1
    88a8:	01000084 	movi	r4,2
    88ac:	d98b883a 	add	r5,sp,r6
    88b0:	dcc00045 	stb	r19,1(sp)
    88b4:	000b4480 	call	b448 <write>
    88b8:	81000003 	ldbu	r4,0(r16)
    88bc:	84000044 	addi	r16,r16,1
    88c0:	00087a80 	call	87a8 <s_putx>
    88c4:	8c3ff51e 	bne	r17,r16,889c <dump_hex+0x4c>
    88c8:	04000074 	movhi	r16,1
    88cc:	00800344 	movi	r2,13
    88d0:	84315804 	addi	r16,r16,-15008
    88d4:	01800044 	movi	r6,1
    88d8:	d80b883a 	mov	r5,sp
    88dc:	01000084 	movi	r4,2
    88e0:	84000044 	addi	r16,r16,1
    88e4:	d8800005 	stb	r2,0(sp)
    88e8:	000b4480 	call	b448 <write>
    88ec:	80800003 	ldbu	r2,0(r16)
    88f0:	10c03fcc 	andi	r3,r2,255
    88f4:	18c0201c 	xori	r3,r3,128
    88f8:	18ffe004 	addi	r3,r3,-128
    88fc:	183ff51e 	bne	r3,zero,88d4 <dump_hex+0x84>
    8900:	dfc00517 	ldw	ra,20(sp)
    8904:	dcc00417 	ldw	r19,16(sp)
    8908:	dc800317 	ldw	r18,12(sp)
    890c:	dc400217 	ldw	r17,8(sp)
    8910:	dc000117 	ldw	r16,4(sp)
    8914:	dec00604 	addi	sp,sp,24
    8918:	f800283a 	ret

0000891c <s_printd>:
    891c:	defffa04 	addi	sp,sp,-24
    8920:	dc400215 	stw	r17,8(sp)
    8924:	2823883a 	mov	r17,r5
    8928:	dfc00315 	stw	ra,12(sp)
    892c:	dc000115 	stw	r16,4(sp)
    8930:	d9800415 	stw	r6,16(sp)
    8934:	d9c00515 	stw	r7,20(sp)
    8938:	20800003 	ldbu	r2,0(r4)
    893c:	2021883a 	mov	r16,r4
    8940:	10c03fcc 	andi	r3,r2,255
    8944:	18c0201c 	xori	r3,r3,128
    8948:	18ffe004 	addi	r3,r3,-128
    894c:	18000b26 	beq	r3,zero,897c <s_printd+0x60>
    8950:	01800044 	movi	r6,1
    8954:	d80b883a 	mov	r5,sp
    8958:	01000084 	movi	r4,2
    895c:	84000044 	addi	r16,r16,1
    8960:	d8800005 	stb	r2,0(sp)
    8964:	000b4480 	call	b448 <write>
    8968:	80800003 	ldbu	r2,0(r16)
    896c:	10c03fcc 	andi	r3,r2,255
    8970:	18c0201c 	xori	r3,r3,128
    8974:	18ffe004 	addi	r3,r3,-128
    8978:	183ff51e 	bne	r3,zero,8950 <s_printd+0x34>
    897c:	88803fcc 	andi	r2,r17,255
    8980:	8c7fffc4 	addi	r17,r17,-1
    8984:	10000b26 	beq	r2,zero,89b4 <s_printd+0x98>
    8988:	8c403fcc 	andi	r17,r17,255
    898c:	8c400044 	addi	r17,r17,1
    8990:	8c63883a 	add	r17,r17,r17
    8994:	8c63883a 	add	r17,r17,r17
    8998:	d8800404 	addi	r2,sp,16
    899c:	1463883a 	add	r17,r2,r17
    89a0:	11000017 	ldw	r4,0(r2)
    89a4:	14000104 	addi	r16,r2,4
    89a8:	00086c80 	call	86c8 <s_putd>
    89ac:	8005883a 	mov	r2,r16
    89b0:	847ffb1e 	bne	r16,r17,89a0 <s_printd+0x84>
    89b4:	00085140 	call	8514 <put_line>
    89b8:	dfc00317 	ldw	ra,12(sp)
    89bc:	dc400217 	ldw	r17,8(sp)
    89c0:	dc000117 	ldw	r16,4(sp)
    89c4:	dec00604 	addi	sp,sp,24
    89c8:	f800283a 	ret

000089cc <s_printl>:
    89cc:	defff904 	addi	sp,sp,-28
    89d0:	dc000115 	stw	r16,4(sp)
    89d4:	2821883a 	mov	r16,r5
    89d8:	dfc00415 	stw	ra,16(sp)
    89dc:	dc800315 	stw	r18,12(sp)
    89e0:	dc400215 	stw	r17,8(sp)
    89e4:	d9800515 	stw	r6,20(sp)
    89e8:	d9c00615 	stw	r7,24(sp)
    89ec:	20800003 	ldbu	r2,0(r4)
    89f0:	2023883a 	mov	r17,r4
    89f4:	10c03fcc 	andi	r3,r2,255
    89f8:	18c0201c 	xori	r3,r3,128
    89fc:	18ffe004 	addi	r3,r3,-128
    8a00:	18000b26 	beq	r3,zero,8a30 <s_printl+0x64>
    8a04:	01800044 	movi	r6,1
    8a08:	d98b883a 	add	r5,sp,r6
    8a0c:	01000084 	movi	r4,2
    8a10:	8c400044 	addi	r17,r17,1
    8a14:	d8800045 	stb	r2,1(sp)
    8a18:	000b4480 	call	b448 <write>
    8a1c:	88800003 	ldbu	r2,0(r17)
    8a20:	10c03fcc 	andi	r3,r2,255
    8a24:	18c0201c 	xori	r3,r3,128
    8a28:	18ffe004 	addi	r3,r3,-128
    8a2c:	183ff51e 	bne	r3,zero,8a04 <s_printl+0x38>
    8a30:	dc400504 	addi	r17,sp,20
    8a34:	04800804 	movi	r18,32
    8a38:	00000906 	br	8a60 <s_printl+0x94>
    8a3c:	11000017 	ldw	r4,0(r2)
    8a40:	8c400104 	addi	r17,r17,4
    8a44:	843fffc4 	addi	r16,r16,-1
    8a48:	00086c80 	call	86c8 <s_putd>
    8a4c:	01800044 	movi	r6,1
    8a50:	d80b883a 	mov	r5,sp
    8a54:	01000084 	movi	r4,2
    8a58:	dc800005 	stb	r18,0(sp)
    8a5c:	000b4480 	call	b448 <write>
    8a60:	80c03fcc 	andi	r3,r16,255
    8a64:	8805883a 	mov	r2,r17
    8a68:	183ff41e 	bne	r3,zero,8a3c <s_printl+0x70>
    8a6c:	00085140 	call	8514 <put_line>
    8a70:	dfc00417 	ldw	ra,16(sp)
    8a74:	dc800317 	ldw	r18,12(sp)
    8a78:	dc400217 	ldw	r17,8(sp)
    8a7c:	dc000117 	ldw	r16,4(sp)
    8a80:	dec00704 	addi	sp,sp,28
    8a84:	f800283a 	ret

00008a88 <s_printx>:
    8a88:	defff904 	addi	sp,sp,-28
    8a8c:	dc000115 	stw	r16,4(sp)
    8a90:	2821883a 	mov	r16,r5
    8a94:	dfc00415 	stw	ra,16(sp)
    8a98:	dc800315 	stw	r18,12(sp)
    8a9c:	dc400215 	stw	r17,8(sp)
    8aa0:	d9800515 	stw	r6,20(sp)
    8aa4:	d9c00615 	stw	r7,24(sp)
    8aa8:	20800003 	ldbu	r2,0(r4)
    8aac:	2023883a 	mov	r17,r4
    8ab0:	10c03fcc 	andi	r3,r2,255
    8ab4:	18c0201c 	xori	r3,r3,128
    8ab8:	18ffe004 	addi	r3,r3,-128
    8abc:	18000b26 	beq	r3,zero,8aec <s_printx+0x64>
    8ac0:	01800044 	movi	r6,1
    8ac4:	d98b883a 	add	r5,sp,r6
    8ac8:	01000084 	movi	r4,2
    8acc:	8c400044 	addi	r17,r17,1
    8ad0:	d8800045 	stb	r2,1(sp)
    8ad4:	000b4480 	call	b448 <write>
    8ad8:	88800003 	ldbu	r2,0(r17)
    8adc:	10c03fcc 	andi	r3,r2,255
    8ae0:	18c0201c 	xori	r3,r3,128
    8ae4:	18ffe004 	addi	r3,r3,-128
    8ae8:	183ff51e 	bne	r3,zero,8ac0 <s_printx+0x38>
    8aec:	dc400504 	addi	r17,sp,20
    8af0:	04800804 	movi	r18,32
    8af4:	00000906 	br	8b1c <s_printx+0x94>
    8af8:	11000017 	ldw	r4,0(r2)
    8afc:	8c400104 	addi	r17,r17,4
    8b00:	843fffc4 	addi	r16,r16,-1
    8b04:	00087a80 	call	87a8 <s_putx>
    8b08:	01800044 	movi	r6,1
    8b0c:	d80b883a 	mov	r5,sp
    8b10:	01000084 	movi	r4,2
    8b14:	dc800005 	stb	r18,0(sp)
    8b18:	000b4480 	call	b448 <write>
    8b1c:	80c03fcc 	andi	r3,r16,255
    8b20:	8805883a 	mov	r2,r17
    8b24:	183ff41e 	bne	r3,zero,8af8 <s_printx+0x70>
    8b28:	00085140 	call	8514 <put_line>
    8b2c:	dfc00417 	ldw	ra,16(sp)
    8b30:	dc800317 	ldw	r18,12(sp)
    8b34:	dc400217 	ldw	r17,8(sp)
    8b38:	dc000117 	ldw	r16,4(sp)
    8b3c:	dec00704 	addi	sp,sp,28
    8b40:	f800283a 	ret

00008b44 <s_printb>:
    8b44:	defffa04 	addi	sp,sp,-24
    8b48:	dc400215 	stw	r17,8(sp)
    8b4c:	2823883a 	mov	r17,r5
    8b50:	dfc00315 	stw	ra,12(sp)
    8b54:	dc000115 	stw	r16,4(sp)
    8b58:	d9800415 	stw	r6,16(sp)
    8b5c:	d9c00515 	stw	r7,20(sp)
    8b60:	20800003 	ldbu	r2,0(r4)
    8b64:	2021883a 	mov	r16,r4
    8b68:	10c03fcc 	andi	r3,r2,255
    8b6c:	18c0201c 	xori	r3,r3,128
    8b70:	18ffe004 	addi	r3,r3,-128
    8b74:	18000b26 	beq	r3,zero,8ba4 <s_printb+0x60>
    8b78:	01800044 	movi	r6,1
    8b7c:	d80b883a 	mov	r5,sp
    8b80:	01000084 	movi	r4,2
    8b84:	84000044 	addi	r16,r16,1
    8b88:	d8800005 	stb	r2,0(sp)
    8b8c:	000b4480 	call	b448 <write>
    8b90:	80800003 	ldbu	r2,0(r16)
    8b94:	10c03fcc 	andi	r3,r2,255
    8b98:	18c0201c 	xori	r3,r3,128
    8b9c:	18ffe004 	addi	r3,r3,-128
    8ba0:	183ff51e 	bne	r3,zero,8b78 <s_printb+0x34>
    8ba4:	88803fcc 	andi	r2,r17,255
    8ba8:	8c7fffc4 	addi	r17,r17,-1
    8bac:	10000c26 	beq	r2,zero,8be0 <s_printb+0x9c>
    8bb0:	8c403fcc 	andi	r17,r17,255
    8bb4:	8c400044 	addi	r17,r17,1
    8bb8:	8c63883a 	add	r17,r17,r17
    8bbc:	8c63883a 	add	r17,r17,r17
    8bc0:	d8800404 	addi	r2,sp,16
    8bc4:	1463883a 	add	r17,r2,r17
    8bc8:	11000003 	ldbu	r4,0(r2)
    8bcc:	14000104 	addi	r16,r2,4
    8bd0:	00087a80 	call	87a8 <s_putx>
    8bd4:	00085680 	call	8568 <put_space>
    8bd8:	8005883a 	mov	r2,r16
    8bdc:	847ffa1e 	bne	r16,r17,8bc8 <s_printb+0x84>
    8be0:	00085140 	call	8514 <put_line>
    8be4:	dfc00317 	ldw	ra,12(sp)
    8be8:	dc400217 	ldw	r17,8(sp)
    8bec:	dc000117 	ldw	r16,4(sp)
    8bf0:	dec00604 	addi	sp,sp,24
    8bf4:	f800283a 	ret

00008bf8 <s_printlx>:
    8bf8:	defffa04 	addi	sp,sp,-24
    8bfc:	dc400215 	stw	r17,8(sp)
    8c00:	2823883a 	mov	r17,r5
    8c04:	dfc00315 	stw	ra,12(sp)
    8c08:	dc000115 	stw	r16,4(sp)
    8c0c:	d9800415 	stw	r6,16(sp)
    8c10:	d9c00515 	stw	r7,20(sp)
    8c14:	20800003 	ldbu	r2,0(r4)
    8c18:	2021883a 	mov	r16,r4
    8c1c:	10c03fcc 	andi	r3,r2,255
    8c20:	18c0201c 	xori	r3,r3,128
    8c24:	18ffe004 	addi	r3,r3,-128
    8c28:	18000b26 	beq	r3,zero,8c58 <s_printlx+0x60>
    8c2c:	01800044 	movi	r6,1
    8c30:	d80b883a 	mov	r5,sp
    8c34:	01000084 	movi	r4,2
    8c38:	84000044 	addi	r16,r16,1
    8c3c:	d8800005 	stb	r2,0(sp)
    8c40:	000b4480 	call	b448 <write>
    8c44:	80800003 	ldbu	r2,0(r16)
    8c48:	10c03fcc 	andi	r3,r2,255
    8c4c:	18c0201c 	xori	r3,r3,128
    8c50:	18ffe004 	addi	r3,r3,-128
    8c54:	183ff51e 	bne	r3,zero,8c2c <s_printlx+0x34>
    8c58:	88803fcc 	andi	r2,r17,255
    8c5c:	8c7fffc4 	addi	r17,r17,-1
    8c60:	10000c26 	beq	r2,zero,8c94 <s_printlx+0x9c>
    8c64:	8c403fcc 	andi	r17,r17,255
    8c68:	8c400044 	addi	r17,r17,1
    8c6c:	8c63883a 	add	r17,r17,r17
    8c70:	8c63883a 	add	r17,r17,r17
    8c74:	d8800404 	addi	r2,sp,16
    8c78:	1463883a 	add	r17,r2,r17
    8c7c:	11000017 	ldw	r4,0(r2)
    8c80:	14000104 	addi	r16,r2,4
    8c84:	00087a80 	call	87a8 <s_putx>
    8c88:	00085680 	call	8568 <put_space>
    8c8c:	8005883a 	mov	r2,r16
    8c90:	847ffa1e 	bne	r16,r17,8c7c <s_printlx+0x84>
    8c94:	00085140 	call	8514 <put_line>
    8c98:	dfc00317 	ldw	ra,12(sp)
    8c9c:	dc400217 	ldw	r17,8(sp)
    8ca0:	dc000117 	ldw	r16,4(sp)
    8ca4:	dec00604 	addi	sp,sp,24
    8ca8:	f800283a 	ret

00008cac <__divsi3>:
    8cac:	20001b16 	blt	r4,zero,8d1c <__divsi3+0x70>
    8cb0:	000f883a 	mov	r7,zero
    8cb4:	28001616 	blt	r5,zero,8d10 <__divsi3+0x64>
    8cb8:	200d883a 	mov	r6,r4
    8cbc:	29001a2e 	bgeu	r5,r4,8d28 <__divsi3+0x7c>
    8cc0:	00800804 	movi	r2,32
    8cc4:	00c00044 	movi	r3,1
    8cc8:	00000106 	br	8cd0 <__divsi3+0x24>
    8ccc:	10000d26 	beq	r2,zero,8d04 <__divsi3+0x58>
    8cd0:	294b883a 	add	r5,r5,r5
    8cd4:	10bfffc4 	addi	r2,r2,-1
    8cd8:	18c7883a 	add	r3,r3,r3
    8cdc:	293ffb36 	bltu	r5,r4,8ccc <__divsi3+0x20>
    8ce0:	0005883a 	mov	r2,zero
    8ce4:	18000726 	beq	r3,zero,8d04 <__divsi3+0x58>
    8ce8:	0005883a 	mov	r2,zero
    8cec:	31400236 	bltu	r6,r5,8cf8 <__divsi3+0x4c>
    8cf0:	314dc83a 	sub	r6,r6,r5
    8cf4:	10c4b03a 	or	r2,r2,r3
    8cf8:	1806d07a 	srli	r3,r3,1
    8cfc:	280ad07a 	srli	r5,r5,1
    8d00:	183ffa1e 	bne	r3,zero,8cec <__divsi3+0x40>
    8d04:	38000126 	beq	r7,zero,8d0c <__divsi3+0x60>
    8d08:	0085c83a 	sub	r2,zero,r2
    8d0c:	f800283a 	ret
    8d10:	014bc83a 	sub	r5,zero,r5
    8d14:	39c0005c 	xori	r7,r7,1
    8d18:	003fe706 	br	8cb8 <__divsi3+0xc>
    8d1c:	0109c83a 	sub	r4,zero,r4
    8d20:	01c00044 	movi	r7,1
    8d24:	003fe306 	br	8cb4 <__divsi3+0x8>
    8d28:	00c00044 	movi	r3,1
    8d2c:	003fee06 	br	8ce8 <__divsi3+0x3c>

00008d30 <__modsi3>:
    8d30:	20001716 	blt	r4,zero,8d90 <__modsi3+0x60>
    8d34:	000f883a 	mov	r7,zero
    8d38:	2005883a 	mov	r2,r4
    8d3c:	28001216 	blt	r5,zero,8d88 <__modsi3+0x58>
    8d40:	2900162e 	bgeu	r5,r4,8d9c <__modsi3+0x6c>
    8d44:	01800804 	movi	r6,32
    8d48:	00c00044 	movi	r3,1
    8d4c:	00000106 	br	8d54 <__modsi3+0x24>
    8d50:	30000a26 	beq	r6,zero,8d7c <__modsi3+0x4c>
    8d54:	294b883a 	add	r5,r5,r5
    8d58:	31bfffc4 	addi	r6,r6,-1
    8d5c:	18c7883a 	add	r3,r3,r3
    8d60:	293ffb36 	bltu	r5,r4,8d50 <__modsi3+0x20>
    8d64:	18000526 	beq	r3,zero,8d7c <__modsi3+0x4c>
    8d68:	1806d07a 	srli	r3,r3,1
    8d6c:	11400136 	bltu	r2,r5,8d74 <__modsi3+0x44>
    8d70:	1145c83a 	sub	r2,r2,r5
    8d74:	280ad07a 	srli	r5,r5,1
    8d78:	183ffb1e 	bne	r3,zero,8d68 <__modsi3+0x38>
    8d7c:	38000126 	beq	r7,zero,8d84 <__modsi3+0x54>
    8d80:	0085c83a 	sub	r2,zero,r2
    8d84:	f800283a 	ret
    8d88:	014bc83a 	sub	r5,zero,r5
    8d8c:	003fec06 	br	8d40 <__modsi3+0x10>
    8d90:	0109c83a 	sub	r4,zero,r4
    8d94:	01c00044 	movi	r7,1
    8d98:	003fe706 	br	8d38 <__modsi3+0x8>
    8d9c:	00c00044 	movi	r3,1
    8da0:	003ff106 	br	8d68 <__modsi3+0x38>

00008da4 <__udivsi3>:
    8da4:	200d883a 	mov	r6,r4
    8da8:	2900152e 	bgeu	r5,r4,8e00 <__udivsi3+0x5c>
    8dac:	28001416 	blt	r5,zero,8e00 <__udivsi3+0x5c>
    8db0:	00800804 	movi	r2,32
    8db4:	00c00044 	movi	r3,1
    8db8:	00000206 	br	8dc4 <__udivsi3+0x20>
    8dbc:	10000e26 	beq	r2,zero,8df8 <__udivsi3+0x54>
    8dc0:	28000516 	blt	r5,zero,8dd8 <__udivsi3+0x34>
    8dc4:	294b883a 	add	r5,r5,r5
    8dc8:	10bfffc4 	addi	r2,r2,-1
    8dcc:	18c7883a 	add	r3,r3,r3
    8dd0:	293ffa36 	bltu	r5,r4,8dbc <__udivsi3+0x18>
    8dd4:	18000826 	beq	r3,zero,8df8 <__udivsi3+0x54>
    8dd8:	0005883a 	mov	r2,zero
    8ddc:	31400236 	bltu	r6,r5,8de8 <__udivsi3+0x44>
    8de0:	314dc83a 	sub	r6,r6,r5
    8de4:	10c4b03a 	or	r2,r2,r3
    8de8:	1806d07a 	srli	r3,r3,1
    8dec:	280ad07a 	srli	r5,r5,1
    8df0:	183ffa1e 	bne	r3,zero,8ddc <__udivsi3+0x38>
    8df4:	f800283a 	ret
    8df8:	0005883a 	mov	r2,zero
    8dfc:	f800283a 	ret
    8e00:	00c00044 	movi	r3,1
    8e04:	003ff406 	br	8dd8 <__udivsi3+0x34>

00008e08 <__umodsi3>:
    8e08:	2005883a 	mov	r2,r4
    8e0c:	2900122e 	bgeu	r5,r4,8e58 <__umodsi3+0x50>
    8e10:	28001116 	blt	r5,zero,8e58 <__umodsi3+0x50>
    8e14:	01800804 	movi	r6,32
    8e18:	00c00044 	movi	r3,1
    8e1c:	00000206 	br	8e28 <__umodsi3+0x20>
    8e20:	30000c26 	beq	r6,zero,8e54 <__umodsi3+0x4c>
    8e24:	28000516 	blt	r5,zero,8e3c <__umodsi3+0x34>
    8e28:	294b883a 	add	r5,r5,r5
    8e2c:	31bfffc4 	addi	r6,r6,-1
    8e30:	18c7883a 	add	r3,r3,r3
    8e34:	293ffa36 	bltu	r5,r4,8e20 <__umodsi3+0x18>
    8e38:	18000626 	beq	r3,zero,8e54 <__umodsi3+0x4c>
    8e3c:	1806d07a 	srli	r3,r3,1
    8e40:	11400136 	bltu	r2,r5,8e48 <__umodsi3+0x40>
    8e44:	1145c83a 	sub	r2,r2,r5
    8e48:	280ad07a 	srli	r5,r5,1
    8e4c:	183ffb1e 	bne	r3,zero,8e3c <__umodsi3+0x34>
    8e50:	f800283a 	ret
    8e54:	f800283a 	ret
    8e58:	00c00044 	movi	r3,1
    8e5c:	003ff706 	br	8e3c <__umodsi3+0x34>

00008e60 <_getc_r>:
    8e60:	defffd04 	addi	sp,sp,-12
    8e64:	dc000115 	stw	r16,4(sp)
    8e68:	dfc00215 	stw	ra,8(sp)
    8e6c:	2021883a 	mov	r16,r4
    8e70:	20000226 	beq	r4,zero,8e7c <_getc_r+0x1c>
    8e74:	20800e17 	ldw	r2,56(r4)
    8e78:	10000c26 	beq	r2,zero,8eac <_getc_r+0x4c>
    8e7c:	28800117 	ldw	r2,4(r5)
    8e80:	10bfffc4 	addi	r2,r2,-1
    8e84:	28800115 	stw	r2,4(r5)
    8e88:	10000c16 	blt	r2,zero,8ebc <_getc_r+0x5c>
    8e8c:	28800017 	ldw	r2,0(r5)
    8e90:	10c00044 	addi	r3,r2,1
    8e94:	28c00015 	stw	r3,0(r5)
    8e98:	10800003 	ldbu	r2,0(r2)
    8e9c:	dfc00217 	ldw	ra,8(sp)
    8ea0:	dc000117 	ldw	r16,4(sp)
    8ea4:	dec00304 	addi	sp,sp,12
    8ea8:	f800283a 	ret
    8eac:	d9400015 	stw	r5,0(sp)
    8eb0:	00093400 	call	9340 <__sinit>
    8eb4:	d9400017 	ldw	r5,0(sp)
    8eb8:	003ff006 	br	8e7c <_getc_r+0x1c>
    8ebc:	8009883a 	mov	r4,r16
    8ec0:	dfc00217 	ldw	ra,8(sp)
    8ec4:	dc000117 	ldw	r16,4(sp)
    8ec8:	dec00304 	addi	sp,sp,12
    8ecc:	0008f581 	jmpi	8f58 <__srget_r>

00008ed0 <getc>:
    8ed0:	00800074 	movhi	r2,1
    8ed4:	defffd04 	addi	sp,sp,-12
    8ed8:	10b3f604 	addi	r2,r2,-12328
    8edc:	dc400115 	stw	r17,4(sp)
    8ee0:	14400017 	ldw	r17,0(r2)
    8ee4:	dc000015 	stw	r16,0(sp)
    8ee8:	dfc00215 	stw	ra,8(sp)
    8eec:	2021883a 	mov	r16,r4
    8ef0:	88000226 	beq	r17,zero,8efc <getc+0x2c>
    8ef4:	88800e17 	ldw	r2,56(r17)
    8ef8:	10000d26 	beq	r2,zero,8f30 <getc+0x60>
    8efc:	80800117 	ldw	r2,4(r16)
    8f00:	10bfffc4 	addi	r2,r2,-1
    8f04:	80800115 	stw	r2,4(r16)
    8f08:	10000c16 	blt	r2,zero,8f3c <getc+0x6c>
    8f0c:	80800017 	ldw	r2,0(r16)
    8f10:	10c00044 	addi	r3,r2,1
    8f14:	80c00015 	stw	r3,0(r16)
    8f18:	10800003 	ldbu	r2,0(r2)
    8f1c:	dfc00217 	ldw	ra,8(sp)
    8f20:	dc400117 	ldw	r17,4(sp)
    8f24:	dc000017 	ldw	r16,0(sp)
    8f28:	dec00304 	addi	sp,sp,12
    8f2c:	f800283a 	ret
    8f30:	8809883a 	mov	r4,r17
    8f34:	00093400 	call	9340 <__sinit>
    8f38:	003ff006 	br	8efc <getc+0x2c>
    8f3c:	800b883a 	mov	r5,r16
    8f40:	8809883a 	mov	r4,r17
    8f44:	dfc00217 	ldw	ra,8(sp)
    8f48:	dc400117 	ldw	r17,4(sp)
    8f4c:	dc000017 	ldw	r16,0(sp)
    8f50:	dec00304 	addi	sp,sp,12
    8f54:	0008f581 	jmpi	8f58 <__srget_r>

00008f58 <__srget_r>:
    8f58:	defffd04 	addi	sp,sp,-12
    8f5c:	dc400115 	stw	r17,4(sp)
    8f60:	dc000015 	stw	r16,0(sp)
    8f64:	dfc00215 	stw	ra,8(sp)
    8f68:	2023883a 	mov	r17,r4
    8f6c:	2821883a 	mov	r16,r5
    8f70:	20000226 	beq	r4,zero,8f7c <__srget_r+0x24>
    8f74:	20800e17 	ldw	r2,56(r4)
    8f78:	10001026 	beq	r2,zero,8fbc <__srget_r+0x64>
    8f7c:	800b883a 	mov	r5,r16
    8f80:	8809883a 	mov	r4,r17
    8f84:	0009e680 	call	9e68 <__srefill_r>
    8f88:	10000e1e 	bne	r2,zero,8fc4 <__srget_r+0x6c>
    8f8c:	80c00017 	ldw	r3,0(r16)
    8f90:	80800117 	ldw	r2,4(r16)
    8f94:	19000044 	addi	r4,r3,1
    8f98:	10bfffc4 	addi	r2,r2,-1
    8f9c:	80800115 	stw	r2,4(r16)
    8fa0:	81000015 	stw	r4,0(r16)
    8fa4:	18800003 	ldbu	r2,0(r3)
    8fa8:	dfc00217 	ldw	ra,8(sp)
    8fac:	dc400117 	ldw	r17,4(sp)
    8fb0:	dc000017 	ldw	r16,0(sp)
    8fb4:	dec00304 	addi	sp,sp,12
    8fb8:	f800283a 	ret
    8fbc:	00093400 	call	9340 <__sinit>
    8fc0:	003fee06 	br	8f7c <__srget_r+0x24>
    8fc4:	00bfffc4 	movi	r2,-1
    8fc8:	003ff706 	br	8fa8 <__srget_r+0x50>

00008fcc <__srget>:
    8fcc:	00800074 	movhi	r2,1
    8fd0:	10b3f604 	addi	r2,r2,-12328
    8fd4:	200b883a 	mov	r5,r4
    8fd8:	11000017 	ldw	r4,0(r2)
    8fdc:	0008f581 	jmpi	8f58 <__srget_r>

00008fe0 <__fp_unlock>:
    8fe0:	0005883a 	mov	r2,zero
    8fe4:	f800283a 	ret

00008fe8 <_cleanup_r>:
    8fe8:	01400074 	movhi	r5,1
    8fec:	2968a004 	addi	r5,r5,-23936
    8ff0:	00094541 	jmpi	9454 <_fwalk_reent>

00008ff4 <__sinit.part.1>:
    8ff4:	defff704 	addi	sp,sp,-36
    8ff8:	00c00074 	movhi	r3,1
    8ffc:	dfc00815 	stw	ra,32(sp)
    9000:	ddc00715 	stw	r23,28(sp)
    9004:	dd800615 	stw	r22,24(sp)
    9008:	dd400515 	stw	r21,20(sp)
    900c:	dd000415 	stw	r20,16(sp)
    9010:	dcc00315 	stw	r19,12(sp)
    9014:	dc800215 	stw	r18,8(sp)
    9018:	dc400115 	stw	r17,4(sp)
    901c:	dc000015 	stw	r16,0(sp)
    9020:	18e3fa04 	addi	r3,r3,-28696
    9024:	24000117 	ldw	r16,4(r4)
    9028:	20c00f15 	stw	r3,60(r4)
    902c:	2080bb04 	addi	r2,r4,748
    9030:	00c000c4 	movi	r3,3
    9034:	20c0b915 	stw	r3,740(r4)
    9038:	2080ba15 	stw	r2,744(r4)
    903c:	2000b815 	stw	zero,736(r4)
    9040:	05c00204 	movi	r23,8
    9044:	00800104 	movi	r2,4
    9048:	2025883a 	mov	r18,r4
    904c:	b80d883a 	mov	r6,r23
    9050:	81001704 	addi	r4,r16,92
    9054:	000b883a 	mov	r5,zero
    9058:	80000015 	stw	zero,0(r16)
    905c:	80000115 	stw	zero,4(r16)
    9060:	80000215 	stw	zero,8(r16)
    9064:	8080030d 	sth	r2,12(r16)
    9068:	80001915 	stw	zero,100(r16)
    906c:	8000038d 	sth	zero,14(r16)
    9070:	80000415 	stw	zero,16(r16)
    9074:	80000515 	stw	zero,20(r16)
    9078:	80000615 	stw	zero,24(r16)
    907c:	0009d240 	call	9d24 <memset>
    9080:	05800074 	movhi	r22,1
    9084:	94400217 	ldw	r17,8(r18)
    9088:	05400074 	movhi	r21,1
    908c:	05000074 	movhi	r20,1
    9090:	04c00074 	movhi	r19,1
    9094:	b5a82404 	addi	r22,r22,-24432
    9098:	ad683b04 	addi	r21,r21,-24340
    909c:	a5285a04 	addi	r20,r20,-24216
    90a0:	9ce87104 	addi	r19,r19,-24124
    90a4:	85800815 	stw	r22,32(r16)
    90a8:	85400915 	stw	r21,36(r16)
    90ac:	85000a15 	stw	r20,40(r16)
    90b0:	84c00b15 	stw	r19,44(r16)
    90b4:	84000715 	stw	r16,28(r16)
    90b8:	00800284 	movi	r2,10
    90bc:	8880030d 	sth	r2,12(r17)
    90c0:	00800044 	movi	r2,1
    90c4:	b80d883a 	mov	r6,r23
    90c8:	89001704 	addi	r4,r17,92
    90cc:	000b883a 	mov	r5,zero
    90d0:	88000015 	stw	zero,0(r17)
    90d4:	88000115 	stw	zero,4(r17)
    90d8:	88000215 	stw	zero,8(r17)
    90dc:	88001915 	stw	zero,100(r17)
    90e0:	8880038d 	sth	r2,14(r17)
    90e4:	88000415 	stw	zero,16(r17)
    90e8:	88000515 	stw	zero,20(r17)
    90ec:	88000615 	stw	zero,24(r17)
    90f0:	0009d240 	call	9d24 <memset>
    90f4:	94000317 	ldw	r16,12(r18)
    90f8:	00800484 	movi	r2,18
    90fc:	8c400715 	stw	r17,28(r17)
    9100:	8d800815 	stw	r22,32(r17)
    9104:	8d400915 	stw	r21,36(r17)
    9108:	8d000a15 	stw	r20,40(r17)
    910c:	8cc00b15 	stw	r19,44(r17)
    9110:	8080030d 	sth	r2,12(r16)
    9114:	00800084 	movi	r2,2
    9118:	80000015 	stw	zero,0(r16)
    911c:	80000115 	stw	zero,4(r16)
    9120:	80000215 	stw	zero,8(r16)
    9124:	80001915 	stw	zero,100(r16)
    9128:	8080038d 	sth	r2,14(r16)
    912c:	80000415 	stw	zero,16(r16)
    9130:	80000515 	stw	zero,20(r16)
    9134:	80000615 	stw	zero,24(r16)
    9138:	b80d883a 	mov	r6,r23
    913c:	000b883a 	mov	r5,zero
    9140:	81001704 	addi	r4,r16,92
    9144:	0009d240 	call	9d24 <memset>
    9148:	00800044 	movi	r2,1
    914c:	84000715 	stw	r16,28(r16)
    9150:	85800815 	stw	r22,32(r16)
    9154:	85400915 	stw	r21,36(r16)
    9158:	85000a15 	stw	r20,40(r16)
    915c:	84c00b15 	stw	r19,44(r16)
    9160:	90800e15 	stw	r2,56(r18)
    9164:	dfc00817 	ldw	ra,32(sp)
    9168:	ddc00717 	ldw	r23,28(sp)
    916c:	dd800617 	ldw	r22,24(sp)
    9170:	dd400517 	ldw	r21,20(sp)
    9174:	dd000417 	ldw	r20,16(sp)
    9178:	dcc00317 	ldw	r19,12(sp)
    917c:	dc800217 	ldw	r18,8(sp)
    9180:	dc400117 	ldw	r17,4(sp)
    9184:	dc000017 	ldw	r16,0(sp)
    9188:	dec00904 	addi	sp,sp,36
    918c:	f800283a 	ret

00009190 <__fp_lock>:
    9190:	0005883a 	mov	r2,zero
    9194:	f800283a 	ret

00009198 <__sfmoreglue>:
    9198:	defffc04 	addi	sp,sp,-16
    919c:	dc800215 	stw	r18,8(sp)
    91a0:	2825883a 	mov	r18,r5
    91a4:	dc000015 	stw	r16,0(sp)
    91a8:	01401a04 	movi	r5,104
    91ac:	2021883a 	mov	r16,r4
    91b0:	913fffc4 	addi	r4,r18,-1
    91b4:	dfc00315 	stw	ra,12(sp)
    91b8:	dc400115 	stw	r17,4(sp)
    91bc:	000ad8c0 	call	ad8c <__mulsi3>
    91c0:	8009883a 	mov	r4,r16
    91c4:	11401d04 	addi	r5,r2,116
    91c8:	1023883a 	mov	r17,r2
    91cc:	00095180 	call	9518 <_malloc_r>
    91d0:	1021883a 	mov	r16,r2
    91d4:	10000726 	beq	r2,zero,91f4 <__sfmoreglue+0x5c>
    91d8:	11000304 	addi	r4,r2,12
    91dc:	10000015 	stw	zero,0(r2)
    91e0:	14800115 	stw	r18,4(r2)
    91e4:	11000215 	stw	r4,8(r2)
    91e8:	89801a04 	addi	r6,r17,104
    91ec:	000b883a 	mov	r5,zero
    91f0:	0009d240 	call	9d24 <memset>
    91f4:	8005883a 	mov	r2,r16
    91f8:	dfc00317 	ldw	ra,12(sp)
    91fc:	dc800217 	ldw	r18,8(sp)
    9200:	dc400117 	ldw	r17,4(sp)
    9204:	dc000017 	ldw	r16,0(sp)
    9208:	dec00404 	addi	sp,sp,16
    920c:	f800283a 	ret

00009210 <__sfp>:
    9210:	defffb04 	addi	sp,sp,-20
    9214:	dc000015 	stw	r16,0(sp)
    9218:	04000074 	movhi	r16,1
    921c:	8433f504 	addi	r16,r16,-12332
    9220:	dcc00315 	stw	r19,12(sp)
    9224:	2027883a 	mov	r19,r4
    9228:	81000017 	ldw	r4,0(r16)
    922c:	dfc00415 	stw	ra,16(sp)
    9230:	dc800215 	stw	r18,8(sp)
    9234:	20800e17 	ldw	r2,56(r4)
    9238:	dc400115 	stw	r17,4(sp)
    923c:	1000021e 	bne	r2,zero,9248 <__sfp+0x38>
    9240:	0008ff40 	call	8ff4 <__sinit.part.1>
    9244:	81000017 	ldw	r4,0(r16)
    9248:	2480b804 	addi	r18,r4,736
    924c:	047fffc4 	movi	r17,-1
    9250:	91000117 	ldw	r4,4(r18)
    9254:	94000217 	ldw	r16,8(r18)
    9258:	213fffc4 	addi	r4,r4,-1
    925c:	20000a16 	blt	r4,zero,9288 <__sfp+0x78>
    9260:	8080030f 	ldh	r2,12(r16)
    9264:	10000c26 	beq	r2,zero,9298 <__sfp+0x88>
    9268:	80c01d04 	addi	r3,r16,116
    926c:	00000206 	br	9278 <__sfp+0x68>
    9270:	18bfe60f 	ldh	r2,-104(r3)
    9274:	10000826 	beq	r2,zero,9298 <__sfp+0x88>
    9278:	213fffc4 	addi	r4,r4,-1
    927c:	1c3ffd04 	addi	r16,r3,-12
    9280:	18c01a04 	addi	r3,r3,104
    9284:	247ffa1e 	bne	r4,r17,9270 <__sfp+0x60>
    9288:	90800017 	ldw	r2,0(r18)
    928c:	10001d26 	beq	r2,zero,9304 <__sfp+0xf4>
    9290:	1025883a 	mov	r18,r2
    9294:	003fee06 	br	9250 <__sfp+0x40>
    9298:	00bfffc4 	movi	r2,-1
    929c:	8080038d 	sth	r2,14(r16)
    92a0:	00800044 	movi	r2,1
    92a4:	8080030d 	sth	r2,12(r16)
    92a8:	80001915 	stw	zero,100(r16)
    92ac:	80000015 	stw	zero,0(r16)
    92b0:	80000215 	stw	zero,8(r16)
    92b4:	80000115 	stw	zero,4(r16)
    92b8:	80000415 	stw	zero,16(r16)
    92bc:	80000515 	stw	zero,20(r16)
    92c0:	80000615 	stw	zero,24(r16)
    92c4:	01800204 	movi	r6,8
    92c8:	000b883a 	mov	r5,zero
    92cc:	81001704 	addi	r4,r16,92
    92d0:	0009d240 	call	9d24 <memset>
    92d4:	8005883a 	mov	r2,r16
    92d8:	80000c15 	stw	zero,48(r16)
    92dc:	80000d15 	stw	zero,52(r16)
    92e0:	80001115 	stw	zero,68(r16)
    92e4:	80001215 	stw	zero,72(r16)
    92e8:	dfc00417 	ldw	ra,16(sp)
    92ec:	dcc00317 	ldw	r19,12(sp)
    92f0:	dc800217 	ldw	r18,8(sp)
    92f4:	dc400117 	ldw	r17,4(sp)
    92f8:	dc000017 	ldw	r16,0(sp)
    92fc:	dec00504 	addi	sp,sp,20
    9300:	f800283a 	ret
    9304:	01400104 	movi	r5,4
    9308:	9809883a 	mov	r4,r19
    930c:	00091980 	call	9198 <__sfmoreglue>
    9310:	90800015 	stw	r2,0(r18)
    9314:	103fde1e 	bne	r2,zero,9290 <__sfp+0x80>
    9318:	00800304 	movi	r2,12
    931c:	98800015 	stw	r2,0(r19)
    9320:	0005883a 	mov	r2,zero
    9324:	003ff006 	br	92e8 <__sfp+0xd8>

00009328 <_cleanup>:
    9328:	00800074 	movhi	r2,1
    932c:	10b3f504 	addi	r2,r2,-12332
    9330:	11000017 	ldw	r4,0(r2)
    9334:	01400074 	movhi	r5,1
    9338:	2968a004 	addi	r5,r5,-23936
    933c:	00094541 	jmpi	9454 <_fwalk_reent>

00009340 <__sinit>:
    9340:	20800e17 	ldw	r2,56(r4)
    9344:	10000126 	beq	r2,zero,934c <__sinit+0xc>
    9348:	f800283a 	ret
    934c:	0008ff41 	jmpi	8ff4 <__sinit.part.1>

00009350 <__sfp_lock_acquire>:
    9350:	f800283a 	ret

00009354 <__sfp_lock_release>:
    9354:	f800283a 	ret

00009358 <__sinit_lock_acquire>:
    9358:	f800283a 	ret

0000935c <__sinit_lock_release>:
    935c:	f800283a 	ret

00009360 <__fp_lock_all>:
    9360:	00800074 	movhi	r2,1
    9364:	10b3f604 	addi	r2,r2,-12328
    9368:	11000017 	ldw	r4,0(r2)
    936c:	01400074 	movhi	r5,1
    9370:	29646404 	addi	r5,r5,-28272
    9374:	00093901 	jmpi	9390 <_fwalk>

00009378 <__fp_unlock_all>:
    9378:	00800074 	movhi	r2,1
    937c:	10b3f604 	addi	r2,r2,-12328
    9380:	11000017 	ldw	r4,0(r2)
    9384:	01400074 	movhi	r5,1
    9388:	2963f804 	addi	r5,r5,-28704
    938c:	00093901 	jmpi	9390 <_fwalk>

00009390 <_fwalk>:
    9390:	defff704 	addi	sp,sp,-36
    9394:	dd000415 	stw	r20,16(sp)
    9398:	dfc00815 	stw	ra,32(sp)
    939c:	ddc00715 	stw	r23,28(sp)
    93a0:	dd800615 	stw	r22,24(sp)
    93a4:	dd400515 	stw	r21,20(sp)
    93a8:	dcc00315 	stw	r19,12(sp)
    93ac:	dc800215 	stw	r18,8(sp)
    93b0:	dc400115 	stw	r17,4(sp)
    93b4:	dc000015 	stw	r16,0(sp)
    93b8:	2500b804 	addi	r20,r4,736
    93bc:	a0002326 	beq	r20,zero,944c <_fwalk+0xbc>
    93c0:	282b883a 	mov	r21,r5
    93c4:	002f883a 	mov	r23,zero
    93c8:	05800044 	movi	r22,1
    93cc:	04ffffc4 	movi	r19,-1
    93d0:	a4400117 	ldw	r17,4(r20)
    93d4:	a4800217 	ldw	r18,8(r20)
    93d8:	8c7fffc4 	addi	r17,r17,-1
    93dc:	88000d16 	blt	r17,zero,9414 <_fwalk+0x84>
    93e0:	94000304 	addi	r16,r18,12
    93e4:	94800384 	addi	r18,r18,14
    93e8:	8080000b 	ldhu	r2,0(r16)
    93ec:	8c7fffc4 	addi	r17,r17,-1
    93f0:	813ffd04 	addi	r4,r16,-12
    93f4:	b080042e 	bgeu	r22,r2,9408 <_fwalk+0x78>
    93f8:	9080000f 	ldh	r2,0(r18)
    93fc:	14c00226 	beq	r2,r19,9408 <_fwalk+0x78>
    9400:	a83ee83a 	callr	r21
    9404:	b8aeb03a 	or	r23,r23,r2
    9408:	84001a04 	addi	r16,r16,104
    940c:	94801a04 	addi	r18,r18,104
    9410:	8cfff51e 	bne	r17,r19,93e8 <_fwalk+0x58>
    9414:	a5000017 	ldw	r20,0(r20)
    9418:	a03fed1e 	bne	r20,zero,93d0 <_fwalk+0x40>
    941c:	b805883a 	mov	r2,r23
    9420:	dfc00817 	ldw	ra,32(sp)
    9424:	ddc00717 	ldw	r23,28(sp)
    9428:	dd800617 	ldw	r22,24(sp)
    942c:	dd400517 	ldw	r21,20(sp)
    9430:	dd000417 	ldw	r20,16(sp)
    9434:	dcc00317 	ldw	r19,12(sp)
    9438:	dc800217 	ldw	r18,8(sp)
    943c:	dc400117 	ldw	r17,4(sp)
    9440:	dc000017 	ldw	r16,0(sp)
    9444:	dec00904 	addi	sp,sp,36
    9448:	f800283a 	ret
    944c:	002f883a 	mov	r23,zero
    9450:	003ff206 	br	941c <_fwalk+0x8c>

00009454 <_fwalk_reent>:
    9454:	defff704 	addi	sp,sp,-36
    9458:	dd000415 	stw	r20,16(sp)
    945c:	dfc00815 	stw	ra,32(sp)
    9460:	ddc00715 	stw	r23,28(sp)
    9464:	dd800615 	stw	r22,24(sp)
    9468:	dd400515 	stw	r21,20(sp)
    946c:	dcc00315 	stw	r19,12(sp)
    9470:	dc800215 	stw	r18,8(sp)
    9474:	dc400115 	stw	r17,4(sp)
    9478:	dc000015 	stw	r16,0(sp)
    947c:	2500b804 	addi	r20,r4,736
    9480:	a0002326 	beq	r20,zero,9510 <_fwalk_reent+0xbc>
    9484:	282b883a 	mov	r21,r5
    9488:	2027883a 	mov	r19,r4
    948c:	002f883a 	mov	r23,zero
    9490:	05800044 	movi	r22,1
    9494:	04bfffc4 	movi	r18,-1
    9498:	a4400117 	ldw	r17,4(r20)
    949c:	a4000217 	ldw	r16,8(r20)
    94a0:	8c7fffc4 	addi	r17,r17,-1
    94a4:	88000c16 	blt	r17,zero,94d8 <_fwalk_reent+0x84>
    94a8:	84000304 	addi	r16,r16,12
    94ac:	8080000b 	ldhu	r2,0(r16)
    94b0:	8c7fffc4 	addi	r17,r17,-1
    94b4:	817ffd04 	addi	r5,r16,-12
    94b8:	b080052e 	bgeu	r22,r2,94d0 <_fwalk_reent+0x7c>
    94bc:	8080008f 	ldh	r2,2(r16)
    94c0:	9809883a 	mov	r4,r19
    94c4:	14800226 	beq	r2,r18,94d0 <_fwalk_reent+0x7c>
    94c8:	a83ee83a 	callr	r21
    94cc:	b8aeb03a 	or	r23,r23,r2
    94d0:	84001a04 	addi	r16,r16,104
    94d4:	8cbff51e 	bne	r17,r18,94ac <_fwalk_reent+0x58>
    94d8:	a5000017 	ldw	r20,0(r20)
    94dc:	a03fee1e 	bne	r20,zero,9498 <_fwalk_reent+0x44>
    94e0:	b805883a 	mov	r2,r23
    94e4:	dfc00817 	ldw	ra,32(sp)
    94e8:	ddc00717 	ldw	r23,28(sp)
    94ec:	dd800617 	ldw	r22,24(sp)
    94f0:	dd400517 	ldw	r21,20(sp)
    94f4:	dd000417 	ldw	r20,16(sp)
    94f8:	dcc00317 	ldw	r19,12(sp)
    94fc:	dc800217 	ldw	r18,8(sp)
    9500:	dc400117 	ldw	r17,4(sp)
    9504:	dc000017 	ldw	r16,0(sp)
    9508:	dec00904 	addi	sp,sp,36
    950c:	f800283a 	ret
    9510:	002f883a 	mov	r23,zero
    9514:	003ff206 	br	94e0 <_fwalk_reent+0x8c>

00009518 <_malloc_r>:
    9518:	defff504 	addi	sp,sp,-44
    951c:	dc800315 	stw	r18,12(sp)
    9520:	dfc00a15 	stw	ra,40(sp)
    9524:	df000915 	stw	fp,36(sp)
    9528:	ddc00815 	stw	r23,32(sp)
    952c:	dd800715 	stw	r22,28(sp)
    9530:	dd400615 	stw	r21,24(sp)
    9534:	dd000515 	stw	r20,20(sp)
    9538:	dcc00415 	stw	r19,16(sp)
    953c:	dc400215 	stw	r17,8(sp)
    9540:	dc000115 	stw	r16,4(sp)
    9544:	288002c4 	addi	r2,r5,11
    9548:	00c00584 	movi	r3,22
    954c:	2025883a 	mov	r18,r4
    9550:	18807f2e 	bgeu	r3,r2,9750 <_malloc_r+0x238>
    9554:	047ffe04 	movi	r17,-8
    9558:	1462703a 	and	r17,r2,r17
    955c:	8800a316 	blt	r17,zero,97ec <_malloc_r+0x2d4>
    9560:	8940a236 	bltu	r17,r5,97ec <_malloc_r+0x2d4>
    9564:	000b2600 	call	b260 <__malloc_lock>
    9568:	00807dc4 	movi	r2,503
    956c:	1441e92e 	bgeu	r2,r17,9d14 <_malloc_r+0x7fc>
    9570:	8804d27a 	srli	r2,r17,9
    9574:	1000a126 	beq	r2,zero,97fc <_malloc_r+0x2e4>
    9578:	00c00104 	movi	r3,4
    957c:	18811e36 	bltu	r3,r2,99f8 <_malloc_r+0x4e0>
    9580:	8804d1ba 	srli	r2,r17,6
    9584:	12000e44 	addi	r8,r2,57
    9588:	11c00e04 	addi	r7,r2,56
    958c:	4209883a 	add	r4,r8,r8
    9590:	04c00074 	movhi	r19,1
    9594:	2109883a 	add	r4,r4,r4
    9598:	9cf27304 	addi	r19,r19,-13876
    959c:	2109883a 	add	r4,r4,r4
    95a0:	9909883a 	add	r4,r19,r4
    95a4:	24000117 	ldw	r16,4(r4)
    95a8:	213ffe04 	addi	r4,r4,-8
    95ac:	24009726 	beq	r4,r16,980c <_malloc_r+0x2f4>
    95b0:	80800117 	ldw	r2,4(r16)
    95b4:	01bfff04 	movi	r6,-4
    95b8:	014003c4 	movi	r5,15
    95bc:	1184703a 	and	r2,r2,r6
    95c0:	1447c83a 	sub	r3,r2,r17
    95c4:	28c00716 	blt	r5,r3,95e4 <_malloc_r+0xcc>
    95c8:	1800920e 	bge	r3,zero,9814 <_malloc_r+0x2fc>
    95cc:	84000317 	ldw	r16,12(r16)
    95d0:	24008e26 	beq	r4,r16,980c <_malloc_r+0x2f4>
    95d4:	80800117 	ldw	r2,4(r16)
    95d8:	1184703a 	and	r2,r2,r6
    95dc:	1447c83a 	sub	r3,r2,r17
    95e0:	28fff90e 	bge	r5,r3,95c8 <_malloc_r+0xb0>
    95e4:	3809883a 	mov	r4,r7
    95e8:	01800074 	movhi	r6,1
    95ec:	9c000417 	ldw	r16,16(r19)
    95f0:	31b27304 	addi	r6,r6,-13876
    95f4:	32000204 	addi	r8,r6,8
    95f8:	82013426 	beq	r16,r8,9acc <_malloc_r+0x5b4>
    95fc:	80c00117 	ldw	r3,4(r16)
    9600:	00bfff04 	movi	r2,-4
    9604:	188e703a 	and	r7,r3,r2
    9608:	3c45c83a 	sub	r2,r7,r17
    960c:	00c003c4 	movi	r3,15
    9610:	18811f16 	blt	r3,r2,9a90 <_malloc_r+0x578>
    9614:	32000515 	stw	r8,20(r6)
    9618:	32000415 	stw	r8,16(r6)
    961c:	10007f0e 	bge	r2,zero,981c <_malloc_r+0x304>
    9620:	00807fc4 	movi	r2,511
    9624:	11c0fd36 	bltu	r2,r7,9a1c <_malloc_r+0x504>
    9628:	3806d0fa 	srli	r3,r7,3
    962c:	01c00044 	movi	r7,1
    9630:	30800117 	ldw	r2,4(r6)
    9634:	19400044 	addi	r5,r3,1
    9638:	294b883a 	add	r5,r5,r5
    963c:	1807d0ba 	srai	r3,r3,2
    9640:	294b883a 	add	r5,r5,r5
    9644:	294b883a 	add	r5,r5,r5
    9648:	298b883a 	add	r5,r5,r6
    964c:	38c6983a 	sll	r3,r7,r3
    9650:	29c00017 	ldw	r7,0(r5)
    9654:	2a7ffe04 	addi	r9,r5,-8
    9658:	1886b03a 	or	r3,r3,r2
    965c:	82400315 	stw	r9,12(r16)
    9660:	81c00215 	stw	r7,8(r16)
    9664:	30c00115 	stw	r3,4(r6)
    9668:	2c000015 	stw	r16,0(r5)
    966c:	3c000315 	stw	r16,12(r7)
    9670:	2005d0ba 	srai	r2,r4,2
    9674:	01400044 	movi	r5,1
    9678:	288a983a 	sll	r5,r5,r2
    967c:	19406f36 	bltu	r3,r5,983c <_malloc_r+0x324>
    9680:	28c4703a 	and	r2,r5,r3
    9684:	10000a1e 	bne	r2,zero,96b0 <_malloc_r+0x198>
    9688:	00bfff04 	movi	r2,-4
    968c:	294b883a 	add	r5,r5,r5
    9690:	2088703a 	and	r4,r4,r2
    9694:	28c4703a 	and	r2,r5,r3
    9698:	21000104 	addi	r4,r4,4
    969c:	1000041e 	bne	r2,zero,96b0 <_malloc_r+0x198>
    96a0:	294b883a 	add	r5,r5,r5
    96a4:	28c4703a 	and	r2,r5,r3
    96a8:	21000104 	addi	r4,r4,4
    96ac:	103ffc26 	beq	r2,zero,96a0 <_malloc_r+0x188>
    96b0:	02bfff04 	movi	r10,-4
    96b4:	024003c4 	movi	r9,15
    96b8:	21800044 	addi	r6,r4,1
    96bc:	318d883a 	add	r6,r6,r6
    96c0:	318d883a 	add	r6,r6,r6
    96c4:	318d883a 	add	r6,r6,r6
    96c8:	998d883a 	add	r6,r19,r6
    96cc:	333ffe04 	addi	r12,r6,-8
    96d0:	2017883a 	mov	r11,r4
    96d4:	31800104 	addi	r6,r6,4
    96d8:	34000017 	ldw	r16,0(r6)
    96dc:	31fffd04 	addi	r7,r6,-12
    96e0:	81c0041e 	bne	r16,r7,96f4 <_malloc_r+0x1dc>
    96e4:	0000fb06 	br	9ad4 <_malloc_r+0x5bc>
    96e8:	1801030e 	bge	r3,zero,9af8 <_malloc_r+0x5e0>
    96ec:	84000317 	ldw	r16,12(r16)
    96f0:	81c0f826 	beq	r16,r7,9ad4 <_malloc_r+0x5bc>
    96f4:	80800117 	ldw	r2,4(r16)
    96f8:	1284703a 	and	r2,r2,r10
    96fc:	1447c83a 	sub	r3,r2,r17
    9700:	48fff90e 	bge	r9,r3,96e8 <_malloc_r+0x1d0>
    9704:	80800317 	ldw	r2,12(r16)
    9708:	81000217 	ldw	r4,8(r16)
    970c:	89400054 	ori	r5,r17,1
    9710:	81400115 	stw	r5,4(r16)
    9714:	20800315 	stw	r2,12(r4)
    9718:	11000215 	stw	r4,8(r2)
    971c:	8463883a 	add	r17,r16,r17
    9720:	9c400515 	stw	r17,20(r19)
    9724:	9c400415 	stw	r17,16(r19)
    9728:	18800054 	ori	r2,r3,1
    972c:	88800115 	stw	r2,4(r17)
    9730:	8a000315 	stw	r8,12(r17)
    9734:	8a000215 	stw	r8,8(r17)
    9738:	88e3883a 	add	r17,r17,r3
    973c:	88c00015 	stw	r3,0(r17)
    9740:	9009883a 	mov	r4,r18
    9744:	000b2640 	call	b264 <__malloc_unlock>
    9748:	80800204 	addi	r2,r16,8
    974c:	00001b06 	br	97bc <_malloc_r+0x2a4>
    9750:	04400404 	movi	r17,16
    9754:	89402536 	bltu	r17,r5,97ec <_malloc_r+0x2d4>
    9758:	000b2600 	call	b260 <__malloc_lock>
    975c:	00800184 	movi	r2,6
    9760:	01000084 	movi	r4,2
    9764:	04c00074 	movhi	r19,1
    9768:	1085883a 	add	r2,r2,r2
    976c:	9cf27304 	addi	r19,r19,-13876
    9770:	1085883a 	add	r2,r2,r2
    9774:	9885883a 	add	r2,r19,r2
    9778:	14000117 	ldw	r16,4(r2)
    977c:	10fffe04 	addi	r3,r2,-8
    9780:	80c0d926 	beq	r16,r3,9ae8 <_malloc_r+0x5d0>
    9784:	80c00117 	ldw	r3,4(r16)
    9788:	81000317 	ldw	r4,12(r16)
    978c:	00bfff04 	movi	r2,-4
    9790:	1884703a 	and	r2,r3,r2
    9794:	81400217 	ldw	r5,8(r16)
    9798:	8085883a 	add	r2,r16,r2
    979c:	10c00117 	ldw	r3,4(r2)
    97a0:	29000315 	stw	r4,12(r5)
    97a4:	21400215 	stw	r5,8(r4)
    97a8:	18c00054 	ori	r3,r3,1
    97ac:	10c00115 	stw	r3,4(r2)
    97b0:	9009883a 	mov	r4,r18
    97b4:	000b2640 	call	b264 <__malloc_unlock>
    97b8:	80800204 	addi	r2,r16,8
    97bc:	dfc00a17 	ldw	ra,40(sp)
    97c0:	df000917 	ldw	fp,36(sp)
    97c4:	ddc00817 	ldw	r23,32(sp)
    97c8:	dd800717 	ldw	r22,28(sp)
    97cc:	dd400617 	ldw	r21,24(sp)
    97d0:	dd000517 	ldw	r20,20(sp)
    97d4:	dcc00417 	ldw	r19,16(sp)
    97d8:	dc800317 	ldw	r18,12(sp)
    97dc:	dc400217 	ldw	r17,8(sp)
    97e0:	dc000117 	ldw	r16,4(sp)
    97e4:	dec00b04 	addi	sp,sp,44
    97e8:	f800283a 	ret
    97ec:	00800304 	movi	r2,12
    97f0:	90800015 	stw	r2,0(r18)
    97f4:	0005883a 	mov	r2,zero
    97f8:	003ff006 	br	97bc <_malloc_r+0x2a4>
    97fc:	01002004 	movi	r4,128
    9800:	02001004 	movi	r8,64
    9804:	01c00fc4 	movi	r7,63
    9808:	003f6106 	br	9590 <_malloc_r+0x78>
    980c:	4009883a 	mov	r4,r8
    9810:	003f7506 	br	95e8 <_malloc_r+0xd0>
    9814:	81000317 	ldw	r4,12(r16)
    9818:	003fde06 	br	9794 <_malloc_r+0x27c>
    981c:	81c5883a 	add	r2,r16,r7
    9820:	11400117 	ldw	r5,4(r2)
    9824:	9009883a 	mov	r4,r18
    9828:	29400054 	ori	r5,r5,1
    982c:	11400115 	stw	r5,4(r2)
    9830:	000b2640 	call	b264 <__malloc_unlock>
    9834:	80800204 	addi	r2,r16,8
    9838:	003fe006 	br	97bc <_malloc_r+0x2a4>
    983c:	9c000217 	ldw	r16,8(r19)
    9840:	00bfff04 	movi	r2,-4
    9844:	85800117 	ldw	r22,4(r16)
    9848:	b0ac703a 	and	r22,r22,r2
    984c:	b4400336 	bltu	r22,r17,985c <_malloc_r+0x344>
    9850:	b445c83a 	sub	r2,r22,r17
    9854:	00c003c4 	movi	r3,15
    9858:	18805d16 	blt	r3,r2,99d0 <_malloc_r+0x4b8>
    985c:	05c00074 	movhi	r23,1
    9860:	00800074 	movhi	r2,1
    9864:	10b69e04 	addi	r2,r2,-9608
    9868:	bdf3f704 	addi	r23,r23,-12324
    986c:	15400017 	ldw	r21,0(r2)
    9870:	b8c00017 	ldw	r3,0(r23)
    9874:	00bfffc4 	movi	r2,-1
    9878:	858d883a 	add	r6,r16,r22
    987c:	8d6b883a 	add	r21,r17,r21
    9880:	1880ea26 	beq	r3,r2,9c2c <_malloc_r+0x714>
    9884:	ad4403c4 	addi	r21,r21,4111
    9888:	00bc0004 	movi	r2,-4096
    988c:	a8aa703a 	and	r21,r21,r2
    9890:	a80b883a 	mov	r5,r21
    9894:	9009883a 	mov	r4,r18
    9898:	d9800015 	stw	r6,0(sp)
    989c:	000a03c0 	call	a03c <_sbrk_r>
    98a0:	1029883a 	mov	r20,r2
    98a4:	00bfffc4 	movi	r2,-1
    98a8:	d9800017 	ldw	r6,0(sp)
    98ac:	a080e826 	beq	r20,r2,9c50 <_malloc_r+0x738>
    98b0:	a180a636 	bltu	r20,r6,9b4c <_malloc_r+0x634>
    98b4:	07000074 	movhi	fp,1
    98b8:	e736aa04 	addi	fp,fp,-9560
    98bc:	e0800017 	ldw	r2,0(fp)
    98c0:	a887883a 	add	r3,r21,r2
    98c4:	e0c00015 	stw	r3,0(fp)
    98c8:	3500e626 	beq	r6,r20,9c64 <_malloc_r+0x74c>
    98cc:	b9000017 	ldw	r4,0(r23)
    98d0:	00bfffc4 	movi	r2,-1
    98d4:	2080ee26 	beq	r4,r2,9c90 <_malloc_r+0x778>
    98d8:	a185c83a 	sub	r2,r20,r6
    98dc:	10c5883a 	add	r2,r2,r3
    98e0:	e0800015 	stw	r2,0(fp)
    98e4:	a0c001cc 	andi	r3,r20,7
    98e8:	1800bc26 	beq	r3,zero,9bdc <_malloc_r+0x6c4>
    98ec:	a0e9c83a 	sub	r20,r20,r3
    98f0:	00840204 	movi	r2,4104
    98f4:	a5000204 	addi	r20,r20,8
    98f8:	10c7c83a 	sub	r3,r2,r3
    98fc:	a545883a 	add	r2,r20,r21
    9900:	1083ffcc 	andi	r2,r2,4095
    9904:	18abc83a 	sub	r21,r3,r2
    9908:	a80b883a 	mov	r5,r21
    990c:	9009883a 	mov	r4,r18
    9910:	000a03c0 	call	a03c <_sbrk_r>
    9914:	00ffffc4 	movi	r3,-1
    9918:	10c0e126 	beq	r2,r3,9ca0 <_malloc_r+0x788>
    991c:	1505c83a 	sub	r2,r2,r20
    9920:	1545883a 	add	r2,r2,r21
    9924:	10800054 	ori	r2,r2,1
    9928:	e0c00017 	ldw	r3,0(fp)
    992c:	9d000215 	stw	r20,8(r19)
    9930:	a0800115 	stw	r2,4(r20)
    9934:	a8c7883a 	add	r3,r21,r3
    9938:	e0c00015 	stw	r3,0(fp)
    993c:	84c00e26 	beq	r16,r19,9978 <_malloc_r+0x460>
    9940:	018003c4 	movi	r6,15
    9944:	3580a72e 	bgeu	r6,r22,9be4 <_malloc_r+0x6cc>
    9948:	81400117 	ldw	r5,4(r16)
    994c:	013ffe04 	movi	r4,-8
    9950:	b0bffd04 	addi	r2,r22,-12
    9954:	1104703a 	and	r2,r2,r4
    9958:	2900004c 	andi	r4,r5,1
    995c:	2088b03a 	or	r4,r4,r2
    9960:	81000115 	stw	r4,4(r16)
    9964:	01400144 	movi	r5,5
    9968:	8089883a 	add	r4,r16,r2
    996c:	21400115 	stw	r5,4(r4)
    9970:	21400215 	stw	r5,8(r4)
    9974:	3080cd36 	bltu	r6,r2,9cac <_malloc_r+0x794>
    9978:	00800074 	movhi	r2,1
    997c:	10b69d04 	addi	r2,r2,-9612
    9980:	11000017 	ldw	r4,0(r2)
    9984:	20c0012e 	bgeu	r4,r3,998c <_malloc_r+0x474>
    9988:	10c00015 	stw	r3,0(r2)
    998c:	00800074 	movhi	r2,1
    9990:	10b69c04 	addi	r2,r2,-9616
    9994:	11000017 	ldw	r4,0(r2)
    9998:	9c000217 	ldw	r16,8(r19)
    999c:	20c0012e 	bgeu	r4,r3,99a4 <_malloc_r+0x48c>
    99a0:	10c00015 	stw	r3,0(r2)
    99a4:	80c00117 	ldw	r3,4(r16)
    99a8:	00bfff04 	movi	r2,-4
    99ac:	1886703a 	and	r3,r3,r2
    99b0:	1c45c83a 	sub	r2,r3,r17
    99b4:	1c400236 	bltu	r3,r17,99c0 <_malloc_r+0x4a8>
    99b8:	00c003c4 	movi	r3,15
    99bc:	18800416 	blt	r3,r2,99d0 <_malloc_r+0x4b8>
    99c0:	9009883a 	mov	r4,r18
    99c4:	000b2640 	call	b264 <__malloc_unlock>
    99c8:	0005883a 	mov	r2,zero
    99cc:	003f7b06 	br	97bc <_malloc_r+0x2a4>
    99d0:	88c00054 	ori	r3,r17,1
    99d4:	80c00115 	stw	r3,4(r16)
    99d8:	8463883a 	add	r17,r16,r17
    99dc:	10800054 	ori	r2,r2,1
    99e0:	9c400215 	stw	r17,8(r19)
    99e4:	88800115 	stw	r2,4(r17)
    99e8:	9009883a 	mov	r4,r18
    99ec:	000b2640 	call	b264 <__malloc_unlock>
    99f0:	80800204 	addi	r2,r16,8
    99f4:	003f7106 	br	97bc <_malloc_r+0x2a4>
    99f8:	00c00504 	movi	r3,20
    99fc:	18804a2e 	bgeu	r3,r2,9b28 <_malloc_r+0x610>
    9a00:	00c01504 	movi	r3,84
    9a04:	18806e36 	bltu	r3,r2,9bc0 <_malloc_r+0x6a8>
    9a08:	8804d33a 	srli	r2,r17,12
    9a0c:	12001bc4 	addi	r8,r2,111
    9a10:	11c01b84 	addi	r7,r2,110
    9a14:	4209883a 	add	r4,r8,r8
    9a18:	003edd06 	br	9590 <_malloc_r+0x78>
    9a1c:	3804d27a 	srli	r2,r7,9
    9a20:	00c00104 	movi	r3,4
    9a24:	1880442e 	bgeu	r3,r2,9b38 <_malloc_r+0x620>
    9a28:	00c00504 	movi	r3,20
    9a2c:	18808136 	bltu	r3,r2,9c34 <_malloc_r+0x71c>
    9a30:	11401704 	addi	r5,r2,92
    9a34:	10c016c4 	addi	r3,r2,91
    9a38:	294b883a 	add	r5,r5,r5
    9a3c:	294b883a 	add	r5,r5,r5
    9a40:	294b883a 	add	r5,r5,r5
    9a44:	994b883a 	add	r5,r19,r5
    9a48:	28800017 	ldw	r2,0(r5)
    9a4c:	01800074 	movhi	r6,1
    9a50:	297ffe04 	addi	r5,r5,-8
    9a54:	31b27304 	addi	r6,r6,-13876
    9a58:	28806526 	beq	r5,r2,9bf0 <_malloc_r+0x6d8>
    9a5c:	01bfff04 	movi	r6,-4
    9a60:	10c00117 	ldw	r3,4(r2)
    9a64:	1986703a 	and	r3,r3,r6
    9a68:	38c0022e 	bgeu	r7,r3,9a74 <_malloc_r+0x55c>
    9a6c:	10800217 	ldw	r2,8(r2)
    9a70:	28bffb1e 	bne	r5,r2,9a60 <_malloc_r+0x548>
    9a74:	11400317 	ldw	r5,12(r2)
    9a78:	98c00117 	ldw	r3,4(r19)
    9a7c:	81400315 	stw	r5,12(r16)
    9a80:	80800215 	stw	r2,8(r16)
    9a84:	2c000215 	stw	r16,8(r5)
    9a88:	14000315 	stw	r16,12(r2)
    9a8c:	003ef806 	br	9670 <_malloc_r+0x158>
    9a90:	88c00054 	ori	r3,r17,1
    9a94:	80c00115 	stw	r3,4(r16)
    9a98:	8463883a 	add	r17,r16,r17
    9a9c:	34400515 	stw	r17,20(r6)
    9aa0:	34400415 	stw	r17,16(r6)
    9aa4:	10c00054 	ori	r3,r2,1
    9aa8:	8a000315 	stw	r8,12(r17)
    9aac:	8a000215 	stw	r8,8(r17)
    9ab0:	88c00115 	stw	r3,4(r17)
    9ab4:	88a3883a 	add	r17,r17,r2
    9ab8:	88800015 	stw	r2,0(r17)
    9abc:	9009883a 	mov	r4,r18
    9ac0:	000b2640 	call	b264 <__malloc_unlock>
    9ac4:	80800204 	addi	r2,r16,8
    9ac8:	003f3c06 	br	97bc <_malloc_r+0x2a4>
    9acc:	30c00117 	ldw	r3,4(r6)
    9ad0:	003ee706 	br	9670 <_malloc_r+0x158>
    9ad4:	5ac00044 	addi	r11,r11,1
    9ad8:	588000cc 	andi	r2,r11,3
    9adc:	31800204 	addi	r6,r6,8
    9ae0:	103efd1e 	bne	r2,zero,96d8 <_malloc_r+0x1c0>
    9ae4:	00002406 	br	9b78 <_malloc_r+0x660>
    9ae8:	14000317 	ldw	r16,12(r2)
    9aec:	143f251e 	bne	r2,r16,9784 <_malloc_r+0x26c>
    9af0:	21000084 	addi	r4,r4,2
    9af4:	003ebc06 	br	95e8 <_malloc_r+0xd0>
    9af8:	8085883a 	add	r2,r16,r2
    9afc:	10c00117 	ldw	r3,4(r2)
    9b00:	81000317 	ldw	r4,12(r16)
    9b04:	81400217 	ldw	r5,8(r16)
    9b08:	18c00054 	ori	r3,r3,1
    9b0c:	10c00115 	stw	r3,4(r2)
    9b10:	29000315 	stw	r4,12(r5)
    9b14:	21400215 	stw	r5,8(r4)
    9b18:	9009883a 	mov	r4,r18
    9b1c:	000b2640 	call	b264 <__malloc_unlock>
    9b20:	80800204 	addi	r2,r16,8
    9b24:	003f2506 	br	97bc <_malloc_r+0x2a4>
    9b28:	12001704 	addi	r8,r2,92
    9b2c:	11c016c4 	addi	r7,r2,91
    9b30:	4209883a 	add	r4,r8,r8
    9b34:	003e9606 	br	9590 <_malloc_r+0x78>
    9b38:	3804d1ba 	srli	r2,r7,6
    9b3c:	11400e44 	addi	r5,r2,57
    9b40:	10c00e04 	addi	r3,r2,56
    9b44:	294b883a 	add	r5,r5,r5
    9b48:	003fbc06 	br	9a3c <_malloc_r+0x524>
    9b4c:	84ff5926 	beq	r16,r19,98b4 <_malloc_r+0x39c>
    9b50:	00800074 	movhi	r2,1
    9b54:	10b27304 	addi	r2,r2,-13876
    9b58:	14000217 	ldw	r16,8(r2)
    9b5c:	00bfff04 	movi	r2,-4
    9b60:	80c00117 	ldw	r3,4(r16)
    9b64:	1886703a 	and	r3,r3,r2
    9b68:	003f9106 	br	99b0 <_malloc_r+0x498>
    9b6c:	60800217 	ldw	r2,8(r12)
    9b70:	213fffc4 	addi	r4,r4,-1
    9b74:	1300651e 	bne	r2,r12,9d0c <_malloc_r+0x7f4>
    9b78:	208000cc 	andi	r2,r4,3
    9b7c:	633ffe04 	addi	r12,r12,-8
    9b80:	103ffa1e 	bne	r2,zero,9b6c <_malloc_r+0x654>
    9b84:	98800117 	ldw	r2,4(r19)
    9b88:	0146303a 	nor	r3,zero,r5
    9b8c:	1884703a 	and	r2,r3,r2
    9b90:	98800115 	stw	r2,4(r19)
    9b94:	294b883a 	add	r5,r5,r5
    9b98:	117f2836 	bltu	r2,r5,983c <_malloc_r+0x324>
    9b9c:	283f2726 	beq	r5,zero,983c <_malloc_r+0x324>
    9ba0:	2886703a 	and	r3,r5,r2
    9ba4:	5809883a 	mov	r4,r11
    9ba8:	183ec31e 	bne	r3,zero,96b8 <_malloc_r+0x1a0>
    9bac:	294b883a 	add	r5,r5,r5
    9bb0:	2886703a 	and	r3,r5,r2
    9bb4:	21000104 	addi	r4,r4,4
    9bb8:	183ffc26 	beq	r3,zero,9bac <_malloc_r+0x694>
    9bbc:	003ebe06 	br	96b8 <_malloc_r+0x1a0>
    9bc0:	00c05504 	movi	r3,340
    9bc4:	18801236 	bltu	r3,r2,9c10 <_malloc_r+0x6f8>
    9bc8:	8804d3fa 	srli	r2,r17,15
    9bcc:	12001e04 	addi	r8,r2,120
    9bd0:	11c01dc4 	addi	r7,r2,119
    9bd4:	4209883a 	add	r4,r8,r8
    9bd8:	003e6d06 	br	9590 <_malloc_r+0x78>
    9bdc:	00c40004 	movi	r3,4096
    9be0:	003f4606 	br	98fc <_malloc_r+0x3e4>
    9be4:	00800044 	movi	r2,1
    9be8:	a0800115 	stw	r2,4(r20)
    9bec:	003f7406 	br	99c0 <_malloc_r+0x4a8>
    9bf0:	1805d0ba 	srai	r2,r3,2
    9bf4:	01c00044 	movi	r7,1
    9bf8:	30c00117 	ldw	r3,4(r6)
    9bfc:	388e983a 	sll	r7,r7,r2
    9c00:	2805883a 	mov	r2,r5
    9c04:	38c6b03a 	or	r3,r7,r3
    9c08:	30c00115 	stw	r3,4(r6)
    9c0c:	003f9b06 	br	9a7c <_malloc_r+0x564>
    9c10:	00c15504 	movi	r3,1364
    9c14:	18801a36 	bltu	r3,r2,9c80 <_malloc_r+0x768>
    9c18:	8804d4ba 	srli	r2,r17,18
    9c1c:	12001f44 	addi	r8,r2,125
    9c20:	11c01f04 	addi	r7,r2,124
    9c24:	4209883a 	add	r4,r8,r8
    9c28:	003e5906 	br	9590 <_malloc_r+0x78>
    9c2c:	ad400404 	addi	r21,r21,16
    9c30:	003f1706 	br	9890 <_malloc_r+0x378>
    9c34:	00c01504 	movi	r3,84
    9c38:	18802336 	bltu	r3,r2,9cc8 <_malloc_r+0x7b0>
    9c3c:	3804d33a 	srli	r2,r7,12
    9c40:	11401bc4 	addi	r5,r2,111
    9c44:	10c01b84 	addi	r3,r2,110
    9c48:	294b883a 	add	r5,r5,r5
    9c4c:	003f7b06 	br	9a3c <_malloc_r+0x524>
    9c50:	9c000217 	ldw	r16,8(r19)
    9c54:	00bfff04 	movi	r2,-4
    9c58:	80c00117 	ldw	r3,4(r16)
    9c5c:	1886703a 	and	r3,r3,r2
    9c60:	003f5306 	br	99b0 <_malloc_r+0x498>
    9c64:	3083ffcc 	andi	r2,r6,4095
    9c68:	103f181e 	bne	r2,zero,98cc <_malloc_r+0x3b4>
    9c6c:	99000217 	ldw	r4,8(r19)
    9c70:	b545883a 	add	r2,r22,r21
    9c74:	10800054 	ori	r2,r2,1
    9c78:	20800115 	stw	r2,4(r4)
    9c7c:	003f3e06 	br	9978 <_malloc_r+0x460>
    9c80:	01003f84 	movi	r4,254
    9c84:	02001fc4 	movi	r8,127
    9c88:	01c01f84 	movi	r7,126
    9c8c:	003e4006 	br	9590 <_malloc_r+0x78>
    9c90:	00800074 	movhi	r2,1
    9c94:	10b3f704 	addi	r2,r2,-12324
    9c98:	15000015 	stw	r20,0(r2)
    9c9c:	003f1106 	br	98e4 <_malloc_r+0x3cc>
    9ca0:	00800044 	movi	r2,1
    9ca4:	002b883a 	mov	r21,zero
    9ca8:	003f1f06 	br	9928 <_malloc_r+0x410>
    9cac:	81400204 	addi	r5,r16,8
    9cb0:	9009883a 	mov	r4,r18
    9cb4:	000a7500 	call	a750 <_free_r>
    9cb8:	00800074 	movhi	r2,1
    9cbc:	10b6aa04 	addi	r2,r2,-9560
    9cc0:	10c00017 	ldw	r3,0(r2)
    9cc4:	003f2c06 	br	9978 <_malloc_r+0x460>
    9cc8:	00c05504 	movi	r3,340
    9ccc:	18800536 	bltu	r3,r2,9ce4 <_malloc_r+0x7cc>
    9cd0:	3804d3fa 	srli	r2,r7,15
    9cd4:	11401e04 	addi	r5,r2,120
    9cd8:	10c01dc4 	addi	r3,r2,119
    9cdc:	294b883a 	add	r5,r5,r5
    9ce0:	003f5606 	br	9a3c <_malloc_r+0x524>
    9ce4:	00c15504 	movi	r3,1364
    9ce8:	18800536 	bltu	r3,r2,9d00 <_malloc_r+0x7e8>
    9cec:	3804d4ba 	srli	r2,r7,18
    9cf0:	11401f44 	addi	r5,r2,125
    9cf4:	10c01f04 	addi	r3,r2,124
    9cf8:	294b883a 	add	r5,r5,r5
    9cfc:	003f4f06 	br	9a3c <_malloc_r+0x524>
    9d00:	01403f84 	movi	r5,254
    9d04:	00c01f84 	movi	r3,126
    9d08:	003f4c06 	br	9a3c <_malloc_r+0x524>
    9d0c:	98800117 	ldw	r2,4(r19)
    9d10:	003fa006 	br	9b94 <_malloc_r+0x67c>
    9d14:	8808d0fa 	srli	r4,r17,3
    9d18:	20800044 	addi	r2,r4,1
    9d1c:	1085883a 	add	r2,r2,r2
    9d20:	003e9006 	br	9764 <_malloc_r+0x24c>

00009d24 <memset>:
    9d24:	20c000cc 	andi	r3,r4,3
    9d28:	2005883a 	mov	r2,r4
    9d2c:	18004426 	beq	r3,zero,9e40 <memset+0x11c>
    9d30:	31ffffc4 	addi	r7,r6,-1
    9d34:	30004026 	beq	r6,zero,9e38 <memset+0x114>
    9d38:	2813883a 	mov	r9,r5
    9d3c:	200d883a 	mov	r6,r4
    9d40:	2007883a 	mov	r3,r4
    9d44:	00000406 	br	9d58 <memset+0x34>
    9d48:	3a3fffc4 	addi	r8,r7,-1
    9d4c:	31800044 	addi	r6,r6,1
    9d50:	38003926 	beq	r7,zero,9e38 <memset+0x114>
    9d54:	400f883a 	mov	r7,r8
    9d58:	18c00044 	addi	r3,r3,1
    9d5c:	32400005 	stb	r9,0(r6)
    9d60:	1a0000cc 	andi	r8,r3,3
    9d64:	403ff81e 	bne	r8,zero,9d48 <memset+0x24>
    9d68:	010000c4 	movi	r4,3
    9d6c:	21c02d2e 	bgeu	r4,r7,9e24 <memset+0x100>
    9d70:	29003fcc 	andi	r4,r5,255
    9d74:	200c923a 	slli	r6,r4,8
    9d78:	3108b03a 	or	r4,r6,r4
    9d7c:	200c943a 	slli	r6,r4,16
    9d80:	218cb03a 	or	r6,r4,r6
    9d84:	010003c4 	movi	r4,15
    9d88:	21c0182e 	bgeu	r4,r7,9dec <memset+0xc8>
    9d8c:	3b3ffc04 	addi	r12,r7,-16
    9d90:	6018d13a 	srli	r12,r12,4
    9d94:	1a000104 	addi	r8,r3,4
    9d98:	1ac00204 	addi	r11,r3,8
    9d9c:	6008913a 	slli	r4,r12,4
    9da0:	1a800304 	addi	r10,r3,12
    9da4:	1813883a 	mov	r9,r3
    9da8:	21000504 	addi	r4,r4,20
    9dac:	1909883a 	add	r4,r3,r4
    9db0:	49800015 	stw	r6,0(r9)
    9db4:	41800015 	stw	r6,0(r8)
    9db8:	59800015 	stw	r6,0(r11)
    9dbc:	51800015 	stw	r6,0(r10)
    9dc0:	42000404 	addi	r8,r8,16
    9dc4:	4a400404 	addi	r9,r9,16
    9dc8:	5ac00404 	addi	r11,r11,16
    9dcc:	52800404 	addi	r10,r10,16
    9dd0:	413ff71e 	bne	r8,r4,9db0 <memset+0x8c>
    9dd4:	63000044 	addi	r12,r12,1
    9dd8:	6018913a 	slli	r12,r12,4
    9ddc:	39c003cc 	andi	r7,r7,15
    9de0:	010000c4 	movi	r4,3
    9de4:	1b07883a 	add	r3,r3,r12
    9de8:	21c00e2e 	bgeu	r4,r7,9e24 <memset+0x100>
    9dec:	1813883a 	mov	r9,r3
    9df0:	3811883a 	mov	r8,r7
    9df4:	010000c4 	movi	r4,3
    9df8:	49800015 	stw	r6,0(r9)
    9dfc:	423fff04 	addi	r8,r8,-4
    9e00:	4a400104 	addi	r9,r9,4
    9e04:	223ffc36 	bltu	r4,r8,9df8 <memset+0xd4>
    9e08:	393fff04 	addi	r4,r7,-4
    9e0c:	2008d0ba 	srli	r4,r4,2
    9e10:	39c000cc 	andi	r7,r7,3
    9e14:	21000044 	addi	r4,r4,1
    9e18:	2109883a 	add	r4,r4,r4
    9e1c:	2109883a 	add	r4,r4,r4
    9e20:	1907883a 	add	r3,r3,r4
    9e24:	38000526 	beq	r7,zero,9e3c <memset+0x118>
    9e28:	19cf883a 	add	r7,r3,r7
    9e2c:	19400005 	stb	r5,0(r3)
    9e30:	18c00044 	addi	r3,r3,1
    9e34:	38fffd1e 	bne	r7,r3,9e2c <memset+0x108>
    9e38:	f800283a 	ret
    9e3c:	f800283a 	ret
    9e40:	2007883a 	mov	r3,r4
    9e44:	300f883a 	mov	r7,r6
    9e48:	003fc706 	br	9d68 <memset+0x44>

00009e4c <lflush>:
    9e4c:	2080030b 	ldhu	r2,12(r4)
    9e50:	00c00244 	movi	r3,9
    9e54:	1080024c 	andi	r2,r2,9
    9e58:	10c00226 	beq	r2,r3,9e64 <lflush+0x18>
    9e5c:	0005883a 	mov	r2,zero
    9e60:	f800283a 	ret
    9e64:	000a5fc1 	jmpi	a5fc <fflush>

00009e68 <__srefill_r>:
    9e68:	defffc04 	addi	sp,sp,-16
    9e6c:	dc400115 	stw	r17,4(sp)
    9e70:	dc000015 	stw	r16,0(sp)
    9e74:	dfc00315 	stw	ra,12(sp)
    9e78:	dc800215 	stw	r18,8(sp)
    9e7c:	2023883a 	mov	r17,r4
    9e80:	2821883a 	mov	r16,r5
    9e84:	20000226 	beq	r4,zero,9e90 <__srefill_r+0x28>
    9e88:	20800e17 	ldw	r2,56(r4)
    9e8c:	10003c26 	beq	r2,zero,9f80 <__srefill_r+0x118>
    9e90:	80c0030b 	ldhu	r3,12(r16)
    9e94:	1908000c 	andi	r4,r3,8192
    9e98:	1805883a 	mov	r2,r3
    9e9c:	2000071e 	bne	r4,zero,9ebc <__srefill_r+0x54>
    9ea0:	81001917 	ldw	r4,100(r16)
    9ea4:	18880014 	ori	r2,r3,8192
    9ea8:	00f7ffc4 	movi	r3,-8193
    9eac:	20c8703a 	and	r4,r4,r3
    9eb0:	8080030d 	sth	r2,12(r16)
    9eb4:	1007883a 	mov	r3,r2
    9eb8:	81001915 	stw	r4,100(r16)
    9ebc:	80000115 	stw	zero,4(r16)
    9ec0:	1100080c 	andi	r4,r2,32
    9ec4:	2000571e 	bne	r4,zero,a024 <__srefill_r+0x1bc>
    9ec8:	1100010c 	andi	r4,r2,4
    9ecc:	20001f26 	beq	r4,zero,9f4c <__srefill_r+0xe4>
    9ed0:	81400c17 	ldw	r5,48(r16)
    9ed4:	28000826 	beq	r5,zero,9ef8 <__srefill_r+0x90>
    9ed8:	80801004 	addi	r2,r16,64
    9edc:	28800226 	beq	r5,r2,9ee8 <__srefill_r+0x80>
    9ee0:	8809883a 	mov	r4,r17
    9ee4:	000a7500 	call	a750 <_free_r>
    9ee8:	80800f17 	ldw	r2,60(r16)
    9eec:	80000c15 	stw	zero,48(r16)
    9ef0:	80800115 	stw	r2,4(r16)
    9ef4:	1000391e 	bne	r2,zero,9fdc <__srefill_r+0x174>
    9ef8:	80800417 	ldw	r2,16(r16)
    9efc:	10004b26 	beq	r2,zero,a02c <__srefill_r+0x1c4>
    9f00:	8480030b 	ldhu	r18,12(r16)
    9f04:	908000cc 	andi	r2,r18,3
    9f08:	10001f1e 	bne	r2,zero,9f88 <__srefill_r+0x120>
    9f0c:	81800417 	ldw	r6,16(r16)
    9f10:	80800817 	ldw	r2,32(r16)
    9f14:	81c00517 	ldw	r7,20(r16)
    9f18:	81400717 	ldw	r5,28(r16)
    9f1c:	81800015 	stw	r6,0(r16)
    9f20:	8809883a 	mov	r4,r17
    9f24:	103ee83a 	callr	r2
    9f28:	80800115 	stw	r2,4(r16)
    9f2c:	00800e0e 	bge	zero,r2,9f68 <__srefill_r+0x100>
    9f30:	0005883a 	mov	r2,zero
    9f34:	dfc00317 	ldw	ra,12(sp)
    9f38:	dc800217 	ldw	r18,8(sp)
    9f3c:	dc400117 	ldw	r17,4(sp)
    9f40:	dc000017 	ldw	r16,0(sp)
    9f44:	dec00404 	addi	sp,sp,16
    9f48:	f800283a 	ret
    9f4c:	1100040c 	andi	r4,r2,16
    9f50:	20003026 	beq	r4,zero,a014 <__srefill_r+0x1ac>
    9f54:	1080020c 	andi	r2,r2,8
    9f58:	1000241e 	bne	r2,zero,9fec <__srefill_r+0x184>
    9f5c:	18c00114 	ori	r3,r3,4
    9f60:	80c0030d 	sth	r3,12(r16)
    9f64:	003fe406 	br	9ef8 <__srefill_r+0x90>
    9f68:	80c0030b 	ldhu	r3,12(r16)
    9f6c:	1000161e 	bne	r2,zero,9fc8 <__srefill_r+0x160>
    9f70:	18c00814 	ori	r3,r3,32
    9f74:	00bfffc4 	movi	r2,-1
    9f78:	80c0030d 	sth	r3,12(r16)
    9f7c:	003fed06 	br	9f34 <__srefill_r+0xcc>
    9f80:	00093400 	call	9340 <__sinit>
    9f84:	003fc206 	br	9e90 <__srefill_r+0x28>
    9f88:	00800074 	movhi	r2,1
    9f8c:	10b3f504 	addi	r2,r2,-12332
    9f90:	11000017 	ldw	r4,0(r2)
    9f94:	01400074 	movhi	r5,1
    9f98:	00800044 	movi	r2,1
    9f9c:	29679304 	addi	r5,r5,-25012
    9fa0:	8080030d 	sth	r2,12(r16)
    9fa4:	00093900 	call	9390 <_fwalk>
    9fa8:	00800244 	movi	r2,9
    9fac:	8480030d 	sth	r18,12(r16)
    9fb0:	9480024c 	andi	r18,r18,9
    9fb4:	90bfd51e 	bne	r18,r2,9f0c <__srefill_r+0xa4>
    9fb8:	800b883a 	mov	r5,r16
    9fbc:	8809883a 	mov	r4,r17
    9fc0:	000a3840 	call	a384 <__sflush_r>
    9fc4:	003fd106 	br	9f0c <__srefill_r+0xa4>
    9fc8:	18c01014 	ori	r3,r3,64
    9fcc:	80000115 	stw	zero,4(r16)
    9fd0:	00bfffc4 	movi	r2,-1
    9fd4:	80c0030d 	sth	r3,12(r16)
    9fd8:	003fd606 	br	9f34 <__srefill_r+0xcc>
    9fdc:	80c00e17 	ldw	r3,56(r16)
    9fe0:	0005883a 	mov	r2,zero
    9fe4:	80c00015 	stw	r3,0(r16)
    9fe8:	003fd206 	br	9f34 <__srefill_r+0xcc>
    9fec:	800b883a 	mov	r5,r16
    9ff0:	8809883a 	mov	r4,r17
    9ff4:	000a5a00 	call	a5a0 <_fflush_r>
    9ff8:	10000a1e 	bne	r2,zero,a024 <__srefill_r+0x1bc>
    9ffc:	8080030b 	ldhu	r2,12(r16)
    a000:	00fffdc4 	movi	r3,-9
    a004:	80000215 	stw	zero,8(r16)
    a008:	1886703a 	and	r3,r3,r2
    a00c:	80000615 	stw	zero,24(r16)
    a010:	003fd206 	br	9f5c <__srefill_r+0xf4>
    a014:	00800244 	movi	r2,9
    a018:	88800015 	stw	r2,0(r17)
    a01c:	18c01014 	ori	r3,r3,64
    a020:	80c0030d 	sth	r3,12(r16)
    a024:	00bfffc4 	movi	r2,-1
    a028:	003fc206 	br	9f34 <__srefill_r+0xcc>
    a02c:	800b883a 	mov	r5,r16
    a030:	8809883a 	mov	r4,r17
    a034:	000aac00 	call	aac0 <__smakebuf_r>
    a038:	003fb106 	br	9f00 <__srefill_r+0x98>

0000a03c <_sbrk_r>:
    a03c:	defffd04 	addi	sp,sp,-12
    a040:	dc000015 	stw	r16,0(sp)
    a044:	04000074 	movhi	r16,1
    a048:	dc400115 	stw	r17,4(sp)
    a04c:	84369f04 	addi	r16,r16,-9604
    a050:	2023883a 	mov	r17,r4
    a054:	2809883a 	mov	r4,r5
    a058:	dfc00215 	stw	ra,8(sp)
    a05c:	80000015 	stw	zero,0(r16)
    a060:	000b3fc0 	call	b3fc <sbrk>
    a064:	00ffffc4 	movi	r3,-1
    a068:	10c00526 	beq	r2,r3,a080 <_sbrk_r+0x44>
    a06c:	dfc00217 	ldw	ra,8(sp)
    a070:	dc400117 	ldw	r17,4(sp)
    a074:	dc000017 	ldw	r16,0(sp)
    a078:	dec00304 	addi	sp,sp,12
    a07c:	f800283a 	ret
    a080:	80c00017 	ldw	r3,0(r16)
    a084:	183ff926 	beq	r3,zero,a06c <_sbrk_r+0x30>
    a088:	88c00015 	stw	r3,0(r17)
    a08c:	003ff706 	br	a06c <_sbrk_r+0x30>

0000a090 <__sread>:
    a090:	defffe04 	addi	sp,sp,-8
    a094:	dc000015 	stw	r16,0(sp)
    a098:	2821883a 	mov	r16,r5
    a09c:	2940038f 	ldh	r5,14(r5)
    a0a0:	dfc00115 	stw	ra,4(sp)
    a0a4:	000ac7c0 	call	ac7c <_read_r>
    a0a8:	10000716 	blt	r2,zero,a0c8 <__sread+0x38>
    a0ac:	80c01417 	ldw	r3,80(r16)
    a0b0:	1887883a 	add	r3,r3,r2
    a0b4:	80c01415 	stw	r3,80(r16)
    a0b8:	dfc00117 	ldw	ra,4(sp)
    a0bc:	dc000017 	ldw	r16,0(sp)
    a0c0:	dec00204 	addi	sp,sp,8
    a0c4:	f800283a 	ret
    a0c8:	80c0030b 	ldhu	r3,12(r16)
    a0cc:	18fbffcc 	andi	r3,r3,61439
    a0d0:	80c0030d 	sth	r3,12(r16)
    a0d4:	dfc00117 	ldw	ra,4(sp)
    a0d8:	dc000017 	ldw	r16,0(sp)
    a0dc:	dec00204 	addi	sp,sp,8
    a0e0:	f800283a 	ret

0000a0e4 <__seofread>:
    a0e4:	0005883a 	mov	r2,zero
    a0e8:	f800283a 	ret

0000a0ec <__swrite>:
    a0ec:	2880030b 	ldhu	r2,12(r5)
    a0f0:	defffb04 	addi	sp,sp,-20
    a0f4:	dcc00315 	stw	r19,12(sp)
    a0f8:	dc800215 	stw	r18,8(sp)
    a0fc:	dc400115 	stw	r17,4(sp)
    a100:	dc000015 	stw	r16,0(sp)
    a104:	dfc00415 	stw	ra,16(sp)
    a108:	10c0400c 	andi	r3,r2,256
    a10c:	2821883a 	mov	r16,r5
    a110:	2023883a 	mov	r17,r4
    a114:	3025883a 	mov	r18,r6
    a118:	3827883a 	mov	r19,r7
    a11c:	18000526 	beq	r3,zero,a134 <__swrite+0x48>
    a120:	2940038f 	ldh	r5,14(r5)
    a124:	01c00084 	movi	r7,2
    a128:	000d883a 	mov	r6,zero
    a12c:	000aa600 	call	aa60 <_lseek_r>
    a130:	8080030b 	ldhu	r2,12(r16)
    a134:	8140038f 	ldh	r5,14(r16)
    a138:	10bbffcc 	andi	r2,r2,61439
    a13c:	980f883a 	mov	r7,r19
    a140:	900d883a 	mov	r6,r18
    a144:	8809883a 	mov	r4,r17
    a148:	8080030d 	sth	r2,12(r16)
    a14c:	dfc00417 	ldw	ra,16(sp)
    a150:	dcc00317 	ldw	r19,12(sp)
    a154:	dc800217 	ldw	r18,8(sp)
    a158:	dc400117 	ldw	r17,4(sp)
    a15c:	dc000017 	ldw	r16,0(sp)
    a160:	dec00504 	addi	sp,sp,20
    a164:	000a1cc1 	jmpi	a1cc <_write_r>

0000a168 <__sseek>:
    a168:	defffe04 	addi	sp,sp,-8
    a16c:	dc000015 	stw	r16,0(sp)
    a170:	2821883a 	mov	r16,r5
    a174:	2940038f 	ldh	r5,14(r5)
    a178:	dfc00115 	stw	ra,4(sp)
    a17c:	000aa600 	call	aa60 <_lseek_r>
    a180:	00ffffc4 	movi	r3,-1
    a184:	10c00826 	beq	r2,r3,a1a8 <__sseek+0x40>
    a188:	80c0030b 	ldhu	r3,12(r16)
    a18c:	80801415 	stw	r2,80(r16)
    a190:	18c40014 	ori	r3,r3,4096
    a194:	80c0030d 	sth	r3,12(r16)
    a198:	dfc00117 	ldw	ra,4(sp)
    a19c:	dc000017 	ldw	r16,0(sp)
    a1a0:	dec00204 	addi	sp,sp,8
    a1a4:	f800283a 	ret
    a1a8:	80c0030b 	ldhu	r3,12(r16)
    a1ac:	18fbffcc 	andi	r3,r3,61439
    a1b0:	80c0030d 	sth	r3,12(r16)
    a1b4:	dfc00117 	ldw	ra,4(sp)
    a1b8:	dc000017 	ldw	r16,0(sp)
    a1bc:	dec00204 	addi	sp,sp,8
    a1c0:	f800283a 	ret

0000a1c4 <__sclose>:
    a1c4:	2940038f 	ldh	r5,14(r5)
    a1c8:	000a22c1 	jmpi	a22c <_close_r>

0000a1cc <_write_r>:
    a1cc:	defffd04 	addi	sp,sp,-12
    a1d0:	2805883a 	mov	r2,r5
    a1d4:	dc000015 	stw	r16,0(sp)
    a1d8:	04000074 	movhi	r16,1
    a1dc:	dc400115 	stw	r17,4(sp)
    a1e0:	300b883a 	mov	r5,r6
    a1e4:	84369f04 	addi	r16,r16,-9604
    a1e8:	2023883a 	mov	r17,r4
    a1ec:	380d883a 	mov	r6,r7
    a1f0:	1009883a 	mov	r4,r2
    a1f4:	dfc00215 	stw	ra,8(sp)
    a1f8:	80000015 	stw	zero,0(r16)
    a1fc:	000b4480 	call	b448 <write>
    a200:	00ffffc4 	movi	r3,-1
    a204:	10c00526 	beq	r2,r3,a21c <_write_r+0x50>
    a208:	dfc00217 	ldw	ra,8(sp)
    a20c:	dc400117 	ldw	r17,4(sp)
    a210:	dc000017 	ldw	r16,0(sp)
    a214:	dec00304 	addi	sp,sp,12
    a218:	f800283a 	ret
    a21c:	80c00017 	ldw	r3,0(r16)
    a220:	183ff926 	beq	r3,zero,a208 <_write_r+0x3c>
    a224:	88c00015 	stw	r3,0(r17)
    a228:	003ff706 	br	a208 <_write_r+0x3c>

0000a22c <_close_r>:
    a22c:	defffd04 	addi	sp,sp,-12
    a230:	dc000015 	stw	r16,0(sp)
    a234:	04000074 	movhi	r16,1
    a238:	dc400115 	stw	r17,4(sp)
    a23c:	84369f04 	addi	r16,r16,-9604
    a240:	2023883a 	mov	r17,r4
    a244:	2809883a 	mov	r4,r5
    a248:	dfc00215 	stw	ra,8(sp)
    a24c:	80000015 	stw	zero,0(r16)
    a250:	000adb40 	call	adb4 <close>
    a254:	00ffffc4 	movi	r3,-1
    a258:	10c00526 	beq	r2,r3,a270 <_close_r+0x44>
    a25c:	dfc00217 	ldw	ra,8(sp)
    a260:	dc400117 	ldw	r17,4(sp)
    a264:	dc000017 	ldw	r16,0(sp)
    a268:	dec00304 	addi	sp,sp,12
    a26c:	f800283a 	ret
    a270:	80c00017 	ldw	r3,0(r16)
    a274:	183ff926 	beq	r3,zero,a25c <_close_r+0x30>
    a278:	88c00015 	stw	r3,0(r17)
    a27c:	003ff706 	br	a25c <_close_r+0x30>

0000a280 <_fclose_r>:
    a280:	28003926 	beq	r5,zero,a368 <_fclose_r+0xe8>
    a284:	defffc04 	addi	sp,sp,-16
    a288:	dc400115 	stw	r17,4(sp)
    a28c:	dc000015 	stw	r16,0(sp)
    a290:	dfc00315 	stw	ra,12(sp)
    a294:	dc800215 	stw	r18,8(sp)
    a298:	2023883a 	mov	r17,r4
    a29c:	2821883a 	mov	r16,r5
    a2a0:	20000226 	beq	r4,zero,a2ac <_fclose_r+0x2c>
    a2a4:	20800e17 	ldw	r2,56(r4)
    a2a8:	10002726 	beq	r2,zero,a348 <_fclose_r+0xc8>
    a2ac:	8080030f 	ldh	r2,12(r16)
    a2b0:	1000071e 	bne	r2,zero,a2d0 <_fclose_r+0x50>
    a2b4:	0005883a 	mov	r2,zero
    a2b8:	dfc00317 	ldw	ra,12(sp)
    a2bc:	dc800217 	ldw	r18,8(sp)
    a2c0:	dc400117 	ldw	r17,4(sp)
    a2c4:	dc000017 	ldw	r16,0(sp)
    a2c8:	dec00404 	addi	sp,sp,16
    a2cc:	f800283a 	ret
    a2d0:	800b883a 	mov	r5,r16
    a2d4:	8809883a 	mov	r4,r17
    a2d8:	000a3840 	call	a384 <__sflush_r>
    a2dc:	1025883a 	mov	r18,r2
    a2e0:	80800b17 	ldw	r2,44(r16)
    a2e4:	10000426 	beq	r2,zero,a2f8 <_fclose_r+0x78>
    a2e8:	81400717 	ldw	r5,28(r16)
    a2ec:	8809883a 	mov	r4,r17
    a2f0:	103ee83a 	callr	r2
    a2f4:	10001616 	blt	r2,zero,a350 <_fclose_r+0xd0>
    a2f8:	8080030b 	ldhu	r2,12(r16)
    a2fc:	1080200c 	andi	r2,r2,128
    a300:	1000151e 	bne	r2,zero,a358 <_fclose_r+0xd8>
    a304:	81400c17 	ldw	r5,48(r16)
    a308:	28000526 	beq	r5,zero,a320 <_fclose_r+0xa0>
    a30c:	80801004 	addi	r2,r16,64
    a310:	28800226 	beq	r5,r2,a31c <_fclose_r+0x9c>
    a314:	8809883a 	mov	r4,r17
    a318:	000a7500 	call	a750 <_free_r>
    a31c:	80000c15 	stw	zero,48(r16)
    a320:	81401117 	ldw	r5,68(r16)
    a324:	28000326 	beq	r5,zero,a334 <_fclose_r+0xb4>
    a328:	8809883a 	mov	r4,r17
    a32c:	000a7500 	call	a750 <_free_r>
    a330:	80001115 	stw	zero,68(r16)
    a334:	00093500 	call	9350 <__sfp_lock_acquire>
    a338:	8000030d 	sth	zero,12(r16)
    a33c:	00093540 	call	9354 <__sfp_lock_release>
    a340:	9005883a 	mov	r2,r18
    a344:	003fdc06 	br	a2b8 <_fclose_r+0x38>
    a348:	00093400 	call	9340 <__sinit>
    a34c:	003fd706 	br	a2ac <_fclose_r+0x2c>
    a350:	04bfffc4 	movi	r18,-1
    a354:	003fe806 	br	a2f8 <_fclose_r+0x78>
    a358:	81400417 	ldw	r5,16(r16)
    a35c:	8809883a 	mov	r4,r17
    a360:	000a7500 	call	a750 <_free_r>
    a364:	003fe706 	br	a304 <_fclose_r+0x84>
    a368:	0005883a 	mov	r2,zero
    a36c:	f800283a 	ret

0000a370 <fclose>:
    a370:	00800074 	movhi	r2,1
    a374:	10b3f604 	addi	r2,r2,-12328
    a378:	200b883a 	mov	r5,r4
    a37c:	11000017 	ldw	r4,0(r2)
    a380:	000a2801 	jmpi	a280 <_fclose_r>

0000a384 <__sflush_r>:
    a384:	2880030b 	ldhu	r2,12(r5)
    a388:	defffb04 	addi	sp,sp,-20
    a38c:	dcc00315 	stw	r19,12(sp)
    a390:	dc400115 	stw	r17,4(sp)
    a394:	dfc00415 	stw	ra,16(sp)
    a398:	dc800215 	stw	r18,8(sp)
    a39c:	dc000015 	stw	r16,0(sp)
    a3a0:	10c0020c 	andi	r3,r2,8
    a3a4:	2823883a 	mov	r17,r5
    a3a8:	2027883a 	mov	r19,r4
    a3ac:	1800311e 	bne	r3,zero,a474 <__sflush_r+0xf0>
    a3b0:	28c00117 	ldw	r3,4(r5)
    a3b4:	10820014 	ori	r2,r2,2048
    a3b8:	2880030d 	sth	r2,12(r5)
    a3bc:	00c04b0e 	bge	zero,r3,a4ec <__sflush_r+0x168>
    a3c0:	8a000a17 	ldw	r8,40(r17)
    a3c4:	40002326 	beq	r8,zero,a454 <__sflush_r+0xd0>
    a3c8:	9c000017 	ldw	r16,0(r19)
    a3cc:	10c4000c 	andi	r3,r2,4096
    a3d0:	98000015 	stw	zero,0(r19)
    a3d4:	18004826 	beq	r3,zero,a4f8 <__sflush_r+0x174>
    a3d8:	89801417 	ldw	r6,80(r17)
    a3dc:	10c0010c 	andi	r3,r2,4
    a3e0:	18000626 	beq	r3,zero,a3fc <__sflush_r+0x78>
    a3e4:	88c00117 	ldw	r3,4(r17)
    a3e8:	88800c17 	ldw	r2,48(r17)
    a3ec:	30cdc83a 	sub	r6,r6,r3
    a3f0:	10000226 	beq	r2,zero,a3fc <__sflush_r+0x78>
    a3f4:	88800f17 	ldw	r2,60(r17)
    a3f8:	308dc83a 	sub	r6,r6,r2
    a3fc:	89400717 	ldw	r5,28(r17)
    a400:	000f883a 	mov	r7,zero
    a404:	9809883a 	mov	r4,r19
    a408:	403ee83a 	callr	r8
    a40c:	00ffffc4 	movi	r3,-1
    a410:	10c04426 	beq	r2,r3,a524 <__sflush_r+0x1a0>
    a414:	88c0030b 	ldhu	r3,12(r17)
    a418:	89000417 	ldw	r4,16(r17)
    a41c:	88000115 	stw	zero,4(r17)
    a420:	197dffcc 	andi	r5,r3,63487
    a424:	8940030d 	sth	r5,12(r17)
    a428:	89000015 	stw	r4,0(r17)
    a42c:	18c4000c 	andi	r3,r3,4096
    a430:	18002c1e 	bne	r3,zero,a4e4 <__sflush_r+0x160>
    a434:	89400c17 	ldw	r5,48(r17)
    a438:	9c000015 	stw	r16,0(r19)
    a43c:	28000526 	beq	r5,zero,a454 <__sflush_r+0xd0>
    a440:	88801004 	addi	r2,r17,64
    a444:	28800226 	beq	r5,r2,a450 <__sflush_r+0xcc>
    a448:	9809883a 	mov	r4,r19
    a44c:	000a7500 	call	a750 <_free_r>
    a450:	88000c15 	stw	zero,48(r17)
    a454:	0005883a 	mov	r2,zero
    a458:	dfc00417 	ldw	ra,16(sp)
    a45c:	dcc00317 	ldw	r19,12(sp)
    a460:	dc800217 	ldw	r18,8(sp)
    a464:	dc400117 	ldw	r17,4(sp)
    a468:	dc000017 	ldw	r16,0(sp)
    a46c:	dec00504 	addi	sp,sp,20
    a470:	f800283a 	ret
    a474:	2c800417 	ldw	r18,16(r5)
    a478:	903ff626 	beq	r18,zero,a454 <__sflush_r+0xd0>
    a47c:	2c000017 	ldw	r16,0(r5)
    a480:	108000cc 	andi	r2,r2,3
    a484:	2c800015 	stw	r18,0(r5)
    a488:	84a1c83a 	sub	r16,r16,r18
    a48c:	1000131e 	bne	r2,zero,a4dc <__sflush_r+0x158>
    a490:	28800517 	ldw	r2,20(r5)
    a494:	88800215 	stw	r2,8(r17)
    a498:	04000316 	blt	zero,r16,a4a8 <__sflush_r+0x124>
    a49c:	003fed06 	br	a454 <__sflush_r+0xd0>
    a4a0:	90a5883a 	add	r18,r18,r2
    a4a4:	043feb0e 	bge	zero,r16,a454 <__sflush_r+0xd0>
    a4a8:	88800917 	ldw	r2,36(r17)
    a4ac:	89400717 	ldw	r5,28(r17)
    a4b0:	800f883a 	mov	r7,r16
    a4b4:	900d883a 	mov	r6,r18
    a4b8:	9809883a 	mov	r4,r19
    a4bc:	103ee83a 	callr	r2
    a4c0:	80a1c83a 	sub	r16,r16,r2
    a4c4:	00bff616 	blt	zero,r2,a4a0 <__sflush_r+0x11c>
    a4c8:	88c0030b 	ldhu	r3,12(r17)
    a4cc:	00bfffc4 	movi	r2,-1
    a4d0:	18c01014 	ori	r3,r3,64
    a4d4:	88c0030d 	sth	r3,12(r17)
    a4d8:	003fdf06 	br	a458 <__sflush_r+0xd4>
    a4dc:	0005883a 	mov	r2,zero
    a4e0:	003fec06 	br	a494 <__sflush_r+0x110>
    a4e4:	88801415 	stw	r2,80(r17)
    a4e8:	003fd206 	br	a434 <__sflush_r+0xb0>
    a4ec:	28c00f17 	ldw	r3,60(r5)
    a4f0:	00ffb316 	blt	zero,r3,a3c0 <__sflush_r+0x3c>
    a4f4:	003fd706 	br	a454 <__sflush_r+0xd0>
    a4f8:	89400717 	ldw	r5,28(r17)
    a4fc:	000d883a 	mov	r6,zero
    a500:	01c00044 	movi	r7,1
    a504:	9809883a 	mov	r4,r19
    a508:	403ee83a 	callr	r8
    a50c:	100d883a 	mov	r6,r2
    a510:	00bfffc4 	movi	r2,-1
    a514:	30801426 	beq	r6,r2,a568 <__sflush_r+0x1e4>
    a518:	8880030b 	ldhu	r2,12(r17)
    a51c:	8a000a17 	ldw	r8,40(r17)
    a520:	003fae06 	br	a3dc <__sflush_r+0x58>
    a524:	98c00017 	ldw	r3,0(r19)
    a528:	183fba26 	beq	r3,zero,a414 <__sflush_r+0x90>
    a52c:	01000744 	movi	r4,29
    a530:	19000626 	beq	r3,r4,a54c <__sflush_r+0x1c8>
    a534:	01000584 	movi	r4,22
    a538:	19000426 	beq	r3,r4,a54c <__sflush_r+0x1c8>
    a53c:	88c0030b 	ldhu	r3,12(r17)
    a540:	18c01014 	ori	r3,r3,64
    a544:	88c0030d 	sth	r3,12(r17)
    a548:	003fc306 	br	a458 <__sflush_r+0xd4>
    a54c:	8880030b 	ldhu	r2,12(r17)
    a550:	88c00417 	ldw	r3,16(r17)
    a554:	88000115 	stw	zero,4(r17)
    a558:	10bdffcc 	andi	r2,r2,63487
    a55c:	8880030d 	sth	r2,12(r17)
    a560:	88c00015 	stw	r3,0(r17)
    a564:	003fb306 	br	a434 <__sflush_r+0xb0>
    a568:	98800017 	ldw	r2,0(r19)
    a56c:	103fea26 	beq	r2,zero,a518 <__sflush_r+0x194>
    a570:	00c00744 	movi	r3,29
    a574:	10c00226 	beq	r2,r3,a580 <__sflush_r+0x1fc>
    a578:	00c00584 	movi	r3,22
    a57c:	10c0031e 	bne	r2,r3,a58c <__sflush_r+0x208>
    a580:	9c000015 	stw	r16,0(r19)
    a584:	0005883a 	mov	r2,zero
    a588:	003fb306 	br	a458 <__sflush_r+0xd4>
    a58c:	88c0030b 	ldhu	r3,12(r17)
    a590:	3005883a 	mov	r2,r6
    a594:	18c01014 	ori	r3,r3,64
    a598:	88c0030d 	sth	r3,12(r17)
    a59c:	003fae06 	br	a458 <__sflush_r+0xd4>

0000a5a0 <_fflush_r>:
    a5a0:	defffd04 	addi	sp,sp,-12
    a5a4:	dc000115 	stw	r16,4(sp)
    a5a8:	dfc00215 	stw	ra,8(sp)
    a5ac:	2021883a 	mov	r16,r4
    a5b0:	20000226 	beq	r4,zero,a5bc <_fflush_r+0x1c>
    a5b4:	20800e17 	ldw	r2,56(r4)
    a5b8:	10000c26 	beq	r2,zero,a5ec <_fflush_r+0x4c>
    a5bc:	2880030f 	ldh	r2,12(r5)
    a5c0:	1000051e 	bne	r2,zero,a5d8 <_fflush_r+0x38>
    a5c4:	0005883a 	mov	r2,zero
    a5c8:	dfc00217 	ldw	ra,8(sp)
    a5cc:	dc000117 	ldw	r16,4(sp)
    a5d0:	dec00304 	addi	sp,sp,12
    a5d4:	f800283a 	ret
    a5d8:	8009883a 	mov	r4,r16
    a5dc:	dfc00217 	ldw	ra,8(sp)
    a5e0:	dc000117 	ldw	r16,4(sp)
    a5e4:	dec00304 	addi	sp,sp,12
    a5e8:	000a3841 	jmpi	a384 <__sflush_r>
    a5ec:	d9400015 	stw	r5,0(sp)
    a5f0:	00093400 	call	9340 <__sinit>
    a5f4:	d9400017 	ldw	r5,0(sp)
    a5f8:	003ff006 	br	a5bc <_fflush_r+0x1c>

0000a5fc <fflush>:
    a5fc:	20000526 	beq	r4,zero,a614 <fflush+0x18>
    a600:	00800074 	movhi	r2,1
    a604:	10b3f604 	addi	r2,r2,-12328
    a608:	200b883a 	mov	r5,r4
    a60c:	11000017 	ldw	r4,0(r2)
    a610:	000a5a01 	jmpi	a5a0 <_fflush_r>
    a614:	00800074 	movhi	r2,1
    a618:	10b3f504 	addi	r2,r2,-12332
    a61c:	11000017 	ldw	r4,0(r2)
    a620:	01400074 	movhi	r5,1
    a624:	29696804 	addi	r5,r5,-23136
    a628:	00094541 	jmpi	9454 <_fwalk_reent>

0000a62c <_malloc_trim_r>:
    a62c:	defffb04 	addi	sp,sp,-20
    a630:	dcc00315 	stw	r19,12(sp)
    a634:	04c00074 	movhi	r19,1
    a638:	dc800215 	stw	r18,8(sp)
    a63c:	dc400115 	stw	r17,4(sp)
    a640:	dc000015 	stw	r16,0(sp)
    a644:	dfc00415 	stw	ra,16(sp)
    a648:	2821883a 	mov	r16,r5
    a64c:	9cf27304 	addi	r19,r19,-13876
    a650:	2025883a 	mov	r18,r4
    a654:	000b2600 	call	b260 <__malloc_lock>
    a658:	98800217 	ldw	r2,8(r19)
    a65c:	14400117 	ldw	r17,4(r2)
    a660:	00bfff04 	movi	r2,-4
    a664:	88a2703a 	and	r17,r17,r2
    a668:	8c21c83a 	sub	r16,r17,r16
    a66c:	8403fbc4 	addi	r16,r16,4079
    a670:	8020d33a 	srli	r16,r16,12
    a674:	0083ffc4 	movi	r2,4095
    a678:	843fffc4 	addi	r16,r16,-1
    a67c:	8020933a 	slli	r16,r16,12
    a680:	1400060e 	bge	r2,r16,a69c <_malloc_trim_r+0x70>
    a684:	000b883a 	mov	r5,zero
    a688:	9009883a 	mov	r4,r18
    a68c:	000a03c0 	call	a03c <_sbrk_r>
    a690:	98c00217 	ldw	r3,8(r19)
    a694:	1c47883a 	add	r3,r3,r17
    a698:	10c00a26 	beq	r2,r3,a6c4 <_malloc_trim_r+0x98>
    a69c:	9009883a 	mov	r4,r18
    a6a0:	000b2640 	call	b264 <__malloc_unlock>
    a6a4:	0005883a 	mov	r2,zero
    a6a8:	dfc00417 	ldw	ra,16(sp)
    a6ac:	dcc00317 	ldw	r19,12(sp)
    a6b0:	dc800217 	ldw	r18,8(sp)
    a6b4:	dc400117 	ldw	r17,4(sp)
    a6b8:	dc000017 	ldw	r16,0(sp)
    a6bc:	dec00504 	addi	sp,sp,20
    a6c0:	f800283a 	ret
    a6c4:	040bc83a 	sub	r5,zero,r16
    a6c8:	9009883a 	mov	r4,r18
    a6cc:	000a03c0 	call	a03c <_sbrk_r>
    a6d0:	00ffffc4 	movi	r3,-1
    a6d4:	10c00d26 	beq	r2,r3,a70c <_malloc_trim_r+0xe0>
    a6d8:	00c00074 	movhi	r3,1
    a6dc:	18f6aa04 	addi	r3,r3,-9560
    a6e0:	18800017 	ldw	r2,0(r3)
    a6e4:	99000217 	ldw	r4,8(r19)
    a6e8:	8c23c83a 	sub	r17,r17,r16
    a6ec:	8c400054 	ori	r17,r17,1
    a6f0:	1421c83a 	sub	r16,r2,r16
    a6f4:	24400115 	stw	r17,4(r4)
    a6f8:	9009883a 	mov	r4,r18
    a6fc:	1c000015 	stw	r16,0(r3)
    a700:	000b2640 	call	b264 <__malloc_unlock>
    a704:	00800044 	movi	r2,1
    a708:	003fe706 	br	a6a8 <_malloc_trim_r+0x7c>
    a70c:	000b883a 	mov	r5,zero
    a710:	9009883a 	mov	r4,r18
    a714:	000a03c0 	call	a03c <_sbrk_r>
    a718:	99000217 	ldw	r4,8(r19)
    a71c:	014003c4 	movi	r5,15
    a720:	1107c83a 	sub	r3,r2,r4
    a724:	28ffdd0e 	bge	r5,r3,a69c <_malloc_trim_r+0x70>
    a728:	01400074 	movhi	r5,1
    a72c:	2973f704 	addi	r5,r5,-12324
    a730:	29400017 	ldw	r5,0(r5)
    a734:	18c00054 	ori	r3,r3,1
    a738:	20c00115 	stw	r3,4(r4)
    a73c:	00c00074 	movhi	r3,1
    a740:	1145c83a 	sub	r2,r2,r5
    a744:	18f6aa04 	addi	r3,r3,-9560
    a748:	18800015 	stw	r2,0(r3)
    a74c:	003fd306 	br	a69c <_malloc_trim_r+0x70>

0000a750 <_free_r>:
    a750:	28004126 	beq	r5,zero,a858 <_free_r+0x108>
    a754:	defffd04 	addi	sp,sp,-12
    a758:	dc400115 	stw	r17,4(sp)
    a75c:	dc000015 	stw	r16,0(sp)
    a760:	2023883a 	mov	r17,r4
    a764:	2821883a 	mov	r16,r5
    a768:	dfc00215 	stw	ra,8(sp)
    a76c:	000b2600 	call	b260 <__malloc_lock>
    a770:	81ffff17 	ldw	r7,-4(r16)
    a774:	00bfff84 	movi	r2,-2
    a778:	01000074 	movhi	r4,1
    a77c:	81bffe04 	addi	r6,r16,-8
    a780:	3884703a 	and	r2,r7,r2
    a784:	21327304 	addi	r4,r4,-13876
    a788:	308b883a 	add	r5,r6,r2
    a78c:	2a400117 	ldw	r9,4(r5)
    a790:	22000217 	ldw	r8,8(r4)
    a794:	00ffff04 	movi	r3,-4
    a798:	48c6703a 	and	r3,r9,r3
    a79c:	2a005726 	beq	r5,r8,a8fc <_free_r+0x1ac>
    a7a0:	28c00115 	stw	r3,4(r5)
    a7a4:	39c0004c 	andi	r7,r7,1
    a7a8:	3800091e 	bne	r7,zero,a7d0 <_free_r+0x80>
    a7ac:	823ffe17 	ldw	r8,-8(r16)
    a7b0:	22400204 	addi	r9,r4,8
    a7b4:	320dc83a 	sub	r6,r6,r8
    a7b8:	31c00217 	ldw	r7,8(r6)
    a7bc:	1205883a 	add	r2,r2,r8
    a7c0:	3a406526 	beq	r7,r9,a958 <_free_r+0x208>
    a7c4:	32000317 	ldw	r8,12(r6)
    a7c8:	3a000315 	stw	r8,12(r7)
    a7cc:	41c00215 	stw	r7,8(r8)
    a7d0:	28cf883a 	add	r7,r5,r3
    a7d4:	39c00117 	ldw	r7,4(r7)
    a7d8:	39c0004c 	andi	r7,r7,1
    a7dc:	38003a26 	beq	r7,zero,a8c8 <_free_r+0x178>
    a7e0:	10c00054 	ori	r3,r2,1
    a7e4:	30c00115 	stw	r3,4(r6)
    a7e8:	3087883a 	add	r3,r6,r2
    a7ec:	18800015 	stw	r2,0(r3)
    a7f0:	00c07fc4 	movi	r3,511
    a7f4:	18801936 	bltu	r3,r2,a85c <_free_r+0x10c>
    a7f8:	1004d0fa 	srli	r2,r2,3
    a7fc:	01c00044 	movi	r7,1
    a800:	21400117 	ldw	r5,4(r4)
    a804:	10c00044 	addi	r3,r2,1
    a808:	18c7883a 	add	r3,r3,r3
    a80c:	1005d0ba 	srai	r2,r2,2
    a810:	18c7883a 	add	r3,r3,r3
    a814:	18c7883a 	add	r3,r3,r3
    a818:	1907883a 	add	r3,r3,r4
    a81c:	3884983a 	sll	r2,r7,r2
    a820:	19c00017 	ldw	r7,0(r3)
    a824:	1a3ffe04 	addi	r8,r3,-8
    a828:	1144b03a 	or	r2,r2,r5
    a82c:	32000315 	stw	r8,12(r6)
    a830:	31c00215 	stw	r7,8(r6)
    a834:	20800115 	stw	r2,4(r4)
    a838:	19800015 	stw	r6,0(r3)
    a83c:	39800315 	stw	r6,12(r7)
    a840:	8809883a 	mov	r4,r17
    a844:	dfc00217 	ldw	ra,8(sp)
    a848:	dc400117 	ldw	r17,4(sp)
    a84c:	dc000017 	ldw	r16,0(sp)
    a850:	dec00304 	addi	sp,sp,12
    a854:	000b2641 	jmpi	b264 <__malloc_unlock>
    a858:	f800283a 	ret
    a85c:	100ad27a 	srli	r5,r2,9
    a860:	00c00104 	movi	r3,4
    a864:	19404a36 	bltu	r3,r5,a990 <_free_r+0x240>
    a868:	100ad1ba 	srli	r5,r2,6
    a86c:	28c00e44 	addi	r3,r5,57
    a870:	18c7883a 	add	r3,r3,r3
    a874:	29400e04 	addi	r5,r5,56
    a878:	18c7883a 	add	r3,r3,r3
    a87c:	18c7883a 	add	r3,r3,r3
    a880:	1909883a 	add	r4,r3,r4
    a884:	20c00017 	ldw	r3,0(r4)
    a888:	01c00074 	movhi	r7,1
    a88c:	213ffe04 	addi	r4,r4,-8
    a890:	39f27304 	addi	r7,r7,-13876
    a894:	20c04426 	beq	r4,r3,a9a8 <_free_r+0x258>
    a898:	01ffff04 	movi	r7,-4
    a89c:	19400117 	ldw	r5,4(r3)
    a8a0:	29ca703a 	and	r5,r5,r7
    a8a4:	1140022e 	bgeu	r2,r5,a8b0 <_free_r+0x160>
    a8a8:	18c00217 	ldw	r3,8(r3)
    a8ac:	20fffb1e 	bne	r4,r3,a89c <_free_r+0x14c>
    a8b0:	19000317 	ldw	r4,12(r3)
    a8b4:	31000315 	stw	r4,12(r6)
    a8b8:	30c00215 	stw	r3,8(r6)
    a8bc:	21800215 	stw	r6,8(r4)
    a8c0:	19800315 	stw	r6,12(r3)
    a8c4:	003fde06 	br	a840 <_free_r+0xf0>
    a8c8:	29c00217 	ldw	r7,8(r5)
    a8cc:	10c5883a 	add	r2,r2,r3
    a8d0:	00c00074 	movhi	r3,1
    a8d4:	18f27504 	addi	r3,r3,-13868
    a8d8:	38c03b26 	beq	r7,r3,a9c8 <_free_r+0x278>
    a8dc:	2a000317 	ldw	r8,12(r5)
    a8e0:	11400054 	ori	r5,r2,1
    a8e4:	3087883a 	add	r3,r6,r2
    a8e8:	3a000315 	stw	r8,12(r7)
    a8ec:	41c00215 	stw	r7,8(r8)
    a8f0:	31400115 	stw	r5,4(r6)
    a8f4:	18800015 	stw	r2,0(r3)
    a8f8:	003fbd06 	br	a7f0 <_free_r+0xa0>
    a8fc:	39c0004c 	andi	r7,r7,1
    a900:	10c5883a 	add	r2,r2,r3
    a904:	3800071e 	bne	r7,zero,a924 <_free_r+0x1d4>
    a908:	81fffe17 	ldw	r7,-8(r16)
    a90c:	31cdc83a 	sub	r6,r6,r7
    a910:	30c00317 	ldw	r3,12(r6)
    a914:	31400217 	ldw	r5,8(r6)
    a918:	11c5883a 	add	r2,r2,r7
    a91c:	28c00315 	stw	r3,12(r5)
    a920:	19400215 	stw	r5,8(r3)
    a924:	10c00054 	ori	r3,r2,1
    a928:	30c00115 	stw	r3,4(r6)
    a92c:	00c00074 	movhi	r3,1
    a930:	18f3f804 	addi	r3,r3,-12320
    a934:	18c00017 	ldw	r3,0(r3)
    a938:	21800215 	stw	r6,8(r4)
    a93c:	10ffc036 	bltu	r2,r3,a840 <_free_r+0xf0>
    a940:	00800074 	movhi	r2,1
    a944:	10b69e04 	addi	r2,r2,-9608
    a948:	11400017 	ldw	r5,0(r2)
    a94c:	8809883a 	mov	r4,r17
    a950:	000a62c0 	call	a62c <_malloc_trim_r>
    a954:	003fba06 	br	a840 <_free_r+0xf0>
    a958:	28c9883a 	add	r4,r5,r3
    a95c:	21000117 	ldw	r4,4(r4)
    a960:	2100004c 	andi	r4,r4,1
    a964:	2000391e 	bne	r4,zero,aa4c <_free_r+0x2fc>
    a968:	29c00217 	ldw	r7,8(r5)
    a96c:	29000317 	ldw	r4,12(r5)
    a970:	1885883a 	add	r2,r3,r2
    a974:	10c00054 	ori	r3,r2,1
    a978:	39000315 	stw	r4,12(r7)
    a97c:	21c00215 	stw	r7,8(r4)
    a980:	30c00115 	stw	r3,4(r6)
    a984:	308d883a 	add	r6,r6,r2
    a988:	30800015 	stw	r2,0(r6)
    a98c:	003fac06 	br	a840 <_free_r+0xf0>
    a990:	00c00504 	movi	r3,20
    a994:	19401536 	bltu	r3,r5,a9ec <_free_r+0x29c>
    a998:	28c01704 	addi	r3,r5,92
    a99c:	18c7883a 	add	r3,r3,r3
    a9a0:	294016c4 	addi	r5,r5,91
    a9a4:	003fb406 	br	a878 <_free_r+0x128>
    a9a8:	280bd0ba 	srai	r5,r5,2
    a9ac:	00c00044 	movi	r3,1
    a9b0:	38800117 	ldw	r2,4(r7)
    a9b4:	194a983a 	sll	r5,r3,r5
    a9b8:	2007883a 	mov	r3,r4
    a9bc:	2884b03a 	or	r2,r5,r2
    a9c0:	38800115 	stw	r2,4(r7)
    a9c4:	003fbb06 	br	a8b4 <_free_r+0x164>
    a9c8:	21800515 	stw	r6,20(r4)
    a9cc:	21800415 	stw	r6,16(r4)
    a9d0:	10c00054 	ori	r3,r2,1
    a9d4:	31c00315 	stw	r7,12(r6)
    a9d8:	31c00215 	stw	r7,8(r6)
    a9dc:	30c00115 	stw	r3,4(r6)
    a9e0:	308d883a 	add	r6,r6,r2
    a9e4:	30800015 	stw	r2,0(r6)
    a9e8:	003f9506 	br	a840 <_free_r+0xf0>
    a9ec:	00c01504 	movi	r3,84
    a9f0:	19400536 	bltu	r3,r5,aa08 <_free_r+0x2b8>
    a9f4:	100ad33a 	srli	r5,r2,12
    a9f8:	28c01bc4 	addi	r3,r5,111
    a9fc:	18c7883a 	add	r3,r3,r3
    aa00:	29401b84 	addi	r5,r5,110
    aa04:	003f9c06 	br	a878 <_free_r+0x128>
    aa08:	00c05504 	movi	r3,340
    aa0c:	19400536 	bltu	r3,r5,aa24 <_free_r+0x2d4>
    aa10:	100ad3fa 	srli	r5,r2,15
    aa14:	28c01e04 	addi	r3,r5,120
    aa18:	18c7883a 	add	r3,r3,r3
    aa1c:	29401dc4 	addi	r5,r5,119
    aa20:	003f9506 	br	a878 <_free_r+0x128>
    aa24:	00c15504 	movi	r3,1364
    aa28:	19400536 	bltu	r3,r5,aa40 <_free_r+0x2f0>
    aa2c:	100ad4ba 	srli	r5,r2,18
    aa30:	28c01f44 	addi	r3,r5,125
    aa34:	18c7883a 	add	r3,r3,r3
    aa38:	29401f04 	addi	r5,r5,124
    aa3c:	003f8e06 	br	a878 <_free_r+0x128>
    aa40:	00c03f84 	movi	r3,254
    aa44:	01401f84 	movi	r5,126
    aa48:	003f8b06 	br	a878 <_free_r+0x128>
    aa4c:	10c00054 	ori	r3,r2,1
    aa50:	30c00115 	stw	r3,4(r6)
    aa54:	308d883a 	add	r6,r6,r2
    aa58:	30800015 	stw	r2,0(r6)
    aa5c:	003f7806 	br	a840 <_free_r+0xf0>

0000aa60 <_lseek_r>:
    aa60:	defffd04 	addi	sp,sp,-12
    aa64:	2805883a 	mov	r2,r5
    aa68:	dc000015 	stw	r16,0(sp)
    aa6c:	04000074 	movhi	r16,1
    aa70:	dc400115 	stw	r17,4(sp)
    aa74:	300b883a 	mov	r5,r6
    aa78:	84369f04 	addi	r16,r16,-9604
    aa7c:	2023883a 	mov	r17,r4
    aa80:	380d883a 	mov	r6,r7
    aa84:	1009883a 	mov	r4,r2
    aa88:	dfc00215 	stw	ra,8(sp)
    aa8c:	80000015 	stw	zero,0(r16)
    aa90:	000b1280 	call	b128 <lseek>
    aa94:	00ffffc4 	movi	r3,-1
    aa98:	10c00526 	beq	r2,r3,aab0 <_lseek_r+0x50>
    aa9c:	dfc00217 	ldw	ra,8(sp)
    aaa0:	dc400117 	ldw	r17,4(sp)
    aaa4:	dc000017 	ldw	r16,0(sp)
    aaa8:	dec00304 	addi	sp,sp,12
    aaac:	f800283a 	ret
    aab0:	80c00017 	ldw	r3,0(r16)
    aab4:	183ff926 	beq	r3,zero,aa9c <_lseek_r+0x3c>
    aab8:	88c00015 	stw	r3,0(r17)
    aabc:	003ff706 	br	aa9c <_lseek_r+0x3c>

0000aac0 <__smakebuf_r>:
    aac0:	2880030b 	ldhu	r2,12(r5)
    aac4:	10c0008c 	andi	r3,r2,2
    aac8:	1800411e 	bne	r3,zero,abd0 <__smakebuf_r+0x110>
    aacc:	deffec04 	addi	sp,sp,-80
    aad0:	dc000f15 	stw	r16,60(sp)
    aad4:	2821883a 	mov	r16,r5
    aad8:	2940038f 	ldh	r5,14(r5)
    aadc:	dc401015 	stw	r17,64(sp)
    aae0:	dfc01315 	stw	ra,76(sp)
    aae4:	dcc01215 	stw	r19,72(sp)
    aae8:	dc801115 	stw	r18,68(sp)
    aaec:	2023883a 	mov	r17,r4
    aaf0:	28001c16 	blt	r5,zero,ab64 <__smakebuf_r+0xa4>
    aaf4:	d80d883a 	mov	r6,sp
    aaf8:	000acdc0 	call	acdc <_fstat_r>
    aafc:	10001816 	blt	r2,zero,ab60 <__smakebuf_r+0xa0>
    ab00:	d8800117 	ldw	r2,4(sp)
    ab04:	00e00014 	movui	r3,32768
    ab08:	10bc000c 	andi	r2,r2,61440
    ab0c:	14c80020 	cmpeqi	r19,r2,8192
    ab10:	10c03726 	beq	r2,r3,abf0 <__smakebuf_r+0x130>
    ab14:	80c0030b 	ldhu	r3,12(r16)
    ab18:	18c20014 	ori	r3,r3,2048
    ab1c:	80c0030d 	sth	r3,12(r16)
    ab20:	00c80004 	movi	r3,8192
    ab24:	10c0521e 	bne	r2,r3,ac70 <__smakebuf_r+0x1b0>
    ab28:	8140038f 	ldh	r5,14(r16)
    ab2c:	8809883a 	mov	r4,r17
    ab30:	000ad380 	call	ad38 <_isatty_r>
    ab34:	10004c26 	beq	r2,zero,ac68 <__smakebuf_r+0x1a8>
    ab38:	8080030b 	ldhu	r2,12(r16)
    ab3c:	80c010c4 	addi	r3,r16,67
    ab40:	80c00015 	stw	r3,0(r16)
    ab44:	10800054 	ori	r2,r2,1
    ab48:	8080030d 	sth	r2,12(r16)
    ab4c:	00800044 	movi	r2,1
    ab50:	80c00415 	stw	r3,16(r16)
    ab54:	80800515 	stw	r2,20(r16)
    ab58:	04810004 	movi	r18,1024
    ab5c:	00000706 	br	ab7c <__smakebuf_r+0xbc>
    ab60:	8080030b 	ldhu	r2,12(r16)
    ab64:	10c0200c 	andi	r3,r2,128
    ab68:	18001f1e 	bne	r3,zero,abe8 <__smakebuf_r+0x128>
    ab6c:	04810004 	movi	r18,1024
    ab70:	10820014 	ori	r2,r2,2048
    ab74:	8080030d 	sth	r2,12(r16)
    ab78:	0027883a 	mov	r19,zero
    ab7c:	900b883a 	mov	r5,r18
    ab80:	8809883a 	mov	r4,r17
    ab84:	00095180 	call	9518 <_malloc_r>
    ab88:	10002c26 	beq	r2,zero,ac3c <__smakebuf_r+0x17c>
    ab8c:	80c0030b 	ldhu	r3,12(r16)
    ab90:	01000074 	movhi	r4,1
    ab94:	2123fa04 	addi	r4,r4,-28696
    ab98:	89000f15 	stw	r4,60(r17)
    ab9c:	18c02014 	ori	r3,r3,128
    aba0:	80c0030d 	sth	r3,12(r16)
    aba4:	80800015 	stw	r2,0(r16)
    aba8:	80800415 	stw	r2,16(r16)
    abac:	84800515 	stw	r18,20(r16)
    abb0:	98001a1e 	bne	r19,zero,ac1c <__smakebuf_r+0x15c>
    abb4:	dfc01317 	ldw	ra,76(sp)
    abb8:	dcc01217 	ldw	r19,72(sp)
    abbc:	dc801117 	ldw	r18,68(sp)
    abc0:	dc401017 	ldw	r17,64(sp)
    abc4:	dc000f17 	ldw	r16,60(sp)
    abc8:	dec01404 	addi	sp,sp,80
    abcc:	f800283a 	ret
    abd0:	288010c4 	addi	r2,r5,67
    abd4:	28800015 	stw	r2,0(r5)
    abd8:	28800415 	stw	r2,16(r5)
    abdc:	00800044 	movi	r2,1
    abe0:	28800515 	stw	r2,20(r5)
    abe4:	f800283a 	ret
    abe8:	04801004 	movi	r18,64
    abec:	003fe006 	br	ab70 <__smakebuf_r+0xb0>
    abf0:	81000a17 	ldw	r4,40(r16)
    abf4:	00c00074 	movhi	r3,1
    abf8:	18e85a04 	addi	r3,r3,-24216
    abfc:	20ffc51e 	bne	r4,r3,ab14 <__smakebuf_r+0x54>
    ac00:	8080030b 	ldhu	r2,12(r16)
    ac04:	04810004 	movi	r18,1024
    ac08:	84801315 	stw	r18,76(r16)
    ac0c:	1484b03a 	or	r2,r2,r18
    ac10:	8080030d 	sth	r2,12(r16)
    ac14:	0027883a 	mov	r19,zero
    ac18:	003fd806 	br	ab7c <__smakebuf_r+0xbc>
    ac1c:	8140038f 	ldh	r5,14(r16)
    ac20:	8809883a 	mov	r4,r17
    ac24:	000ad380 	call	ad38 <_isatty_r>
    ac28:	103fe226 	beq	r2,zero,abb4 <__smakebuf_r+0xf4>
    ac2c:	8080030b 	ldhu	r2,12(r16)
    ac30:	10800054 	ori	r2,r2,1
    ac34:	8080030d 	sth	r2,12(r16)
    ac38:	003fde06 	br	abb4 <__smakebuf_r+0xf4>
    ac3c:	8080030b 	ldhu	r2,12(r16)
    ac40:	10c0800c 	andi	r3,r2,512
    ac44:	183fdb1e 	bne	r3,zero,abb4 <__smakebuf_r+0xf4>
    ac48:	10800094 	ori	r2,r2,2
    ac4c:	80c010c4 	addi	r3,r16,67
    ac50:	8080030d 	sth	r2,12(r16)
    ac54:	00800044 	movi	r2,1
    ac58:	80c00015 	stw	r3,0(r16)
    ac5c:	80c00415 	stw	r3,16(r16)
    ac60:	80800515 	stw	r2,20(r16)
    ac64:	003fd306 	br	abb4 <__smakebuf_r+0xf4>
    ac68:	04810004 	movi	r18,1024
    ac6c:	003fc306 	br	ab7c <__smakebuf_r+0xbc>
    ac70:	0027883a 	mov	r19,zero
    ac74:	04810004 	movi	r18,1024
    ac78:	003fc006 	br	ab7c <__smakebuf_r+0xbc>

0000ac7c <_read_r>:
    ac7c:	defffd04 	addi	sp,sp,-12
    ac80:	2805883a 	mov	r2,r5
    ac84:	dc000015 	stw	r16,0(sp)
    ac88:	04000074 	movhi	r16,1
    ac8c:	dc400115 	stw	r17,4(sp)
    ac90:	300b883a 	mov	r5,r6
    ac94:	84369f04 	addi	r16,r16,-9604
    ac98:	2023883a 	mov	r17,r4
    ac9c:	380d883a 	mov	r6,r7
    aca0:	1009883a 	mov	r4,r2
    aca4:	dfc00215 	stw	ra,8(sp)
    aca8:	80000015 	stw	zero,0(r16)
    acac:	000b2680 	call	b268 <read>
    acb0:	00ffffc4 	movi	r3,-1
    acb4:	10c00526 	beq	r2,r3,accc <_read_r+0x50>
    acb8:	dfc00217 	ldw	ra,8(sp)
    acbc:	dc400117 	ldw	r17,4(sp)
    acc0:	dc000017 	ldw	r16,0(sp)
    acc4:	dec00304 	addi	sp,sp,12
    acc8:	f800283a 	ret
    accc:	80c00017 	ldw	r3,0(r16)
    acd0:	183ff926 	beq	r3,zero,acb8 <_read_r+0x3c>
    acd4:	88c00015 	stw	r3,0(r17)
    acd8:	003ff706 	br	acb8 <_read_r+0x3c>

0000acdc <_fstat_r>:
    acdc:	defffd04 	addi	sp,sp,-12
    ace0:	2805883a 	mov	r2,r5
    ace4:	dc000015 	stw	r16,0(sp)
    ace8:	04000074 	movhi	r16,1
    acec:	dc400115 	stw	r17,4(sp)
    acf0:	84369f04 	addi	r16,r16,-9604
    acf4:	2023883a 	mov	r17,r4
    acf8:	300b883a 	mov	r5,r6
    acfc:	1009883a 	mov	r4,r2
    ad00:	dfc00215 	stw	ra,8(sp)
    ad04:	80000015 	stw	zero,0(r16)
    ad08:	000ae940 	call	ae94 <fstat>
    ad0c:	00ffffc4 	movi	r3,-1
    ad10:	10c00526 	beq	r2,r3,ad28 <_fstat_r+0x4c>
    ad14:	dfc00217 	ldw	ra,8(sp)
    ad18:	dc400117 	ldw	r17,4(sp)
    ad1c:	dc000017 	ldw	r16,0(sp)
    ad20:	dec00304 	addi	sp,sp,12
    ad24:	f800283a 	ret
    ad28:	80c00017 	ldw	r3,0(r16)
    ad2c:	183ff926 	beq	r3,zero,ad14 <_fstat_r+0x38>
    ad30:	88c00015 	stw	r3,0(r17)
    ad34:	003ff706 	br	ad14 <_fstat_r+0x38>

0000ad38 <_isatty_r>:
    ad38:	defffd04 	addi	sp,sp,-12
    ad3c:	dc000015 	stw	r16,0(sp)
    ad40:	04000074 	movhi	r16,1
    ad44:	dc400115 	stw	r17,4(sp)
    ad48:	84369f04 	addi	r16,r16,-9604
    ad4c:	2023883a 	mov	r17,r4
    ad50:	2809883a 	mov	r4,r5
    ad54:	dfc00215 	stw	ra,8(sp)
    ad58:	80000015 	stw	zero,0(r16)
    ad5c:	000af680 	call	af68 <isatty>
    ad60:	00ffffc4 	movi	r3,-1
    ad64:	10c00526 	beq	r2,r3,ad7c <_isatty_r+0x44>
    ad68:	dfc00217 	ldw	ra,8(sp)
    ad6c:	dc400117 	ldw	r17,4(sp)
    ad70:	dc000017 	ldw	r16,0(sp)
    ad74:	dec00304 	addi	sp,sp,12
    ad78:	f800283a 	ret
    ad7c:	80c00017 	ldw	r3,0(r16)
    ad80:	183ff926 	beq	r3,zero,ad68 <_isatty_r+0x30>
    ad84:	88c00015 	stw	r3,0(r17)
    ad88:	003ff706 	br	ad68 <_isatty_r+0x30>

0000ad8c <__mulsi3>:
    ad8c:	0005883a 	mov	r2,zero
    ad90:	20000726 	beq	r4,zero,adb0 <__mulsi3+0x24>
    ad94:	20c0004c 	andi	r3,r4,1
    ad98:	2008d07a 	srli	r4,r4,1
    ad9c:	18000126 	beq	r3,zero,ada4 <__mulsi3+0x18>
    ada0:	1145883a 	add	r2,r2,r5
    ada4:	294b883a 	add	r5,r5,r5
    ada8:	203ffa1e 	bne	r4,zero,ad94 <__mulsi3+0x8>
    adac:	f800283a 	ret
    adb0:	f800283a 	ret

0000adb4 <close>:
    adb4:	defffd04 	addi	sp,sp,-12
    adb8:	dfc00215 	stw	ra,8(sp)
    adbc:	dc400115 	stw	r17,4(sp)
    adc0:	dc000015 	stw	r16,0(sp)
    adc4:	20002216 	blt	r4,zero,ae50 <close+0x9c>
    adc8:	01400304 	movi	r5,12
    adcc:	2021883a 	mov	r16,r4
    add0:	000ad8c0 	call	ad8c <__mulsi3>
    add4:	01000074 	movhi	r4,1
    add8:	21337504 	addi	r4,r4,-12844
    addc:	2089883a 	add	r4,r4,r2
    ade0:	20001b26 	beq	r4,zero,ae50 <close+0x9c>
    ade4:	20800017 	ldw	r2,0(r4)
    ade8:	10800417 	ldw	r2,16(r2)
    adec:	10000b26 	beq	r2,zero,ae1c <close+0x68>
    adf0:	103ee83a 	callr	r2
    adf4:	8009883a 	mov	r4,r16
    adf8:	1023883a 	mov	r17,r2
    adfc:	000b3a00 	call	b3a0 <alt_release_fd>
    ae00:	0005883a 	mov	r2,zero
    ae04:	88000916 	blt	r17,zero,ae2c <close+0x78>
    ae08:	dfc00217 	ldw	ra,8(sp)
    ae0c:	dc400117 	ldw	r17,4(sp)
    ae10:	dc000017 	ldw	r16,0(sp)
    ae14:	dec00304 	addi	sp,sp,12
    ae18:	f800283a 	ret
    ae1c:	8009883a 	mov	r4,r16
    ae20:	000b3a00 	call	b3a0 <alt_release_fd>
    ae24:	0005883a 	mov	r2,zero
    ae28:	003ff706 	br	ae08 <close+0x54>
    ae2c:	00800074 	movhi	r2,1
    ae30:	10b3fe04 	addi	r2,r2,-12296
    ae34:	10800017 	ldw	r2,0(r2)
    ae38:	10000e26 	beq	r2,zero,ae74 <close+0xc0>
    ae3c:	103ee83a 	callr	r2
    ae40:	0463c83a 	sub	r17,zero,r17
    ae44:	14400015 	stw	r17,0(r2)
    ae48:	00bfffc4 	movi	r2,-1
    ae4c:	003fee06 	br	ae08 <close+0x54>
    ae50:	00800074 	movhi	r2,1
    ae54:	10b3fe04 	addi	r2,r2,-12296
    ae58:	10800017 	ldw	r2,0(r2)
    ae5c:	10000826 	beq	r2,zero,ae80 <close+0xcc>
    ae60:	103ee83a 	callr	r2
    ae64:	00c01444 	movi	r3,81
    ae68:	10c00015 	stw	r3,0(r2)
    ae6c:	00bfffc4 	movi	r2,-1
    ae70:	003fe506 	br	ae08 <close+0x54>
    ae74:	00800074 	movhi	r2,1
    ae78:	10b69f04 	addi	r2,r2,-9604
    ae7c:	003ff006 	br	ae40 <close+0x8c>
    ae80:	00800074 	movhi	r2,1
    ae84:	10b69f04 	addi	r2,r2,-9604
    ae88:	003ff606 	br	ae64 <close+0xb0>

0000ae8c <alt_dev_null_write>:
    ae8c:	3005883a 	mov	r2,r6
    ae90:	f800283a 	ret

0000ae94 <fstat>:
    ae94:	defffb04 	addi	sp,sp,-20
    ae98:	dfc00415 	stw	ra,16(sp)
    ae9c:	dcc00315 	stw	r19,12(sp)
    aea0:	dc800215 	stw	r18,8(sp)
    aea4:	dc400115 	stw	r17,4(sp)
    aea8:	dc000015 	stw	r16,0(sp)
    aeac:	20002216 	blt	r4,zero,af38 <fstat+0xa4>
    aeb0:	2827883a 	mov	r19,r5
    aeb4:	04000074 	movhi	r16,1
    aeb8:	01400304 	movi	r5,12
    aebc:	2023883a 	mov	r17,r4
    aec0:	84337504 	addi	r16,r16,-12844
    aec4:	000ad8c0 	call	ad8c <__mulsi3>
    aec8:	80a5883a 	add	r18,r16,r2
    aecc:	90001a26 	beq	r18,zero,af38 <fstat+0xa4>
    aed0:	01400304 	movi	r5,12
    aed4:	8809883a 	mov	r4,r17
    aed8:	000ad8c0 	call	ad8c <__mulsi3>
    aedc:	8085883a 	add	r2,r16,r2
    aee0:	10800017 	ldw	r2,0(r2)
    aee4:	10800817 	ldw	r2,32(r2)
    aee8:	10000926 	beq	r2,zero,af10 <fstat+0x7c>
    aeec:	980b883a 	mov	r5,r19
    aef0:	9009883a 	mov	r4,r18
    aef4:	dfc00417 	ldw	ra,16(sp)
    aef8:	dcc00317 	ldw	r19,12(sp)
    aefc:	dc800217 	ldw	r18,8(sp)
    af00:	dc400117 	ldw	r17,4(sp)
    af04:	dc000017 	ldw	r16,0(sp)
    af08:	dec00504 	addi	sp,sp,20
    af0c:	1000683a 	jmp	r2
    af10:	00880004 	movi	r2,8192
    af14:	98800115 	stw	r2,4(r19)
    af18:	0005883a 	mov	r2,zero
    af1c:	dfc00417 	ldw	ra,16(sp)
    af20:	dcc00317 	ldw	r19,12(sp)
    af24:	dc800217 	ldw	r18,8(sp)
    af28:	dc400117 	ldw	r17,4(sp)
    af2c:	dc000017 	ldw	r16,0(sp)
    af30:	dec00504 	addi	sp,sp,20
    af34:	f800283a 	ret
    af38:	00800074 	movhi	r2,1
    af3c:	10b3fe04 	addi	r2,r2,-12296
    af40:	10800017 	ldw	r2,0(r2)
    af44:	10000526 	beq	r2,zero,af5c <fstat+0xc8>
    af48:	103ee83a 	callr	r2
    af4c:	00c01444 	movi	r3,81
    af50:	10c00015 	stw	r3,0(r2)
    af54:	00bfffc4 	movi	r2,-1
    af58:	003ff006 	br	af1c <fstat+0x88>
    af5c:	00800074 	movhi	r2,1
    af60:	10b69f04 	addi	r2,r2,-9604
    af64:	003ff906 	br	af4c <fstat+0xb8>

0000af68 <isatty>:
    af68:	deffef04 	addi	sp,sp,-68
    af6c:	dfc01015 	stw	ra,64(sp)
    af70:	dc000f15 	stw	r16,60(sp)
    af74:	20001816 	blt	r4,zero,afd8 <isatty+0x70>
    af78:	01400304 	movi	r5,12
    af7c:	2021883a 	mov	r16,r4
    af80:	000ad8c0 	call	ad8c <__mulsi3>
    af84:	00c00074 	movhi	r3,1
    af88:	18f37504 	addi	r3,r3,-12844
    af8c:	1885883a 	add	r2,r3,r2
    af90:	10001126 	beq	r2,zero,afd8 <isatty+0x70>
    af94:	10800017 	ldw	r2,0(r2)
    af98:	10800817 	ldw	r2,32(r2)
    af9c:	10000926 	beq	r2,zero,afc4 <isatty+0x5c>
    afa0:	d80b883a 	mov	r5,sp
    afa4:	8009883a 	mov	r4,r16
    afa8:	000ae940 	call	ae94 <fstat>
    afac:	d8800117 	ldw	r2,4(sp)
    afb0:	10880020 	cmpeqi	r2,r2,8192
    afb4:	dfc01017 	ldw	ra,64(sp)
    afb8:	dc000f17 	ldw	r16,60(sp)
    afbc:	dec01104 	addi	sp,sp,68
    afc0:	f800283a 	ret
    afc4:	00800044 	movi	r2,1
    afc8:	dfc01017 	ldw	ra,64(sp)
    afcc:	dc000f17 	ldw	r16,60(sp)
    afd0:	dec01104 	addi	sp,sp,68
    afd4:	f800283a 	ret
    afd8:	00800074 	movhi	r2,1
    afdc:	10b3fe04 	addi	r2,r2,-12296
    afe0:	10800017 	ldw	r2,0(r2)
    afe4:	10000826 	beq	r2,zero,b008 <isatty+0xa0>
    afe8:	103ee83a 	callr	r2
    afec:	00c01444 	movi	r3,81
    aff0:	10c00015 	stw	r3,0(r2)
    aff4:	0005883a 	mov	r2,zero
    aff8:	dfc01017 	ldw	ra,64(sp)
    affc:	dc000f17 	ldw	r16,60(sp)
    b000:	dec01104 	addi	sp,sp,68
    b004:	f800283a 	ret
    b008:	00800074 	movhi	r2,1
    b00c:	10b69f04 	addi	r2,r2,-9604
    b010:	003ff606 	br	afec <isatty+0x84>

0000b014 <alt_load>:
    b014:	deffff04 	addi	sp,sp,-4
    b018:	01800074 	movhi	r6,1
    b01c:	01c00074 	movhi	r7,1
    b020:	dfc00015 	stw	ra,0(sp)
    b024:	31b16a04 	addi	r6,r6,-14936
    b028:	39f40304 	addi	r7,r7,-12276
    b02c:	31c01026 	beq	r6,r7,b070 <alt_load+0x5c>
    b030:	00800074 	movhi	r2,1
    b034:	10b40304 	addi	r2,r2,-12276
    b038:	30800d26 	beq	r6,r2,b070 <alt_load+0x5c>
    b03c:	30c00104 	addi	r3,r6,4
    b040:	10c7c83a 	sub	r3,r2,r3
    b044:	1806d0ba 	srli	r3,r3,2
    b048:	0005883a 	mov	r2,zero
    b04c:	18c00044 	addi	r3,r3,1
    b050:	18c7883a 	add	r3,r3,r3
    b054:	18c7883a 	add	r3,r3,r3
    b058:	11c9883a 	add	r4,r2,r7
    b05c:	21400017 	ldw	r5,0(r4)
    b060:	1189883a 	add	r4,r2,r6
    b064:	10800104 	addi	r2,r2,4
    b068:	21400015 	stw	r5,0(r4)
    b06c:	10fffa1e 	bne	r2,r3,b058 <alt_load+0x44>
    b070:	01800074 	movhi	r6,1
    b074:	01c00074 	movhi	r7,1
    b078:	31a00804 	addi	r6,r6,-32736
    b07c:	39e00804 	addi	r7,r7,-32736
    b080:	31c01026 	beq	r6,r7,b0c4 <alt_load+0xb0>
    b084:	00800074 	movhi	r2,1
    b088:	10a06104 	addi	r2,r2,-32380
    b08c:	30800d26 	beq	r6,r2,b0c4 <alt_load+0xb0>
    b090:	30c00104 	addi	r3,r6,4
    b094:	10c7c83a 	sub	r3,r2,r3
    b098:	1806d0ba 	srli	r3,r3,2
    b09c:	0005883a 	mov	r2,zero
    b0a0:	18c00044 	addi	r3,r3,1
    b0a4:	18c7883a 	add	r3,r3,r3
    b0a8:	18c7883a 	add	r3,r3,r3
    b0ac:	11c9883a 	add	r4,r2,r7
    b0b0:	21400017 	ldw	r5,0(r4)
    b0b4:	1189883a 	add	r4,r2,r6
    b0b8:	10800104 	addi	r2,r2,4
    b0bc:	21400015 	stw	r5,0(r4)
    b0c0:	18bffa1e 	bne	r3,r2,b0ac <alt_load+0x98>
    b0c4:	01800074 	movhi	r6,1
    b0c8:	01c00074 	movhi	r7,1
    b0cc:	31b13404 	addi	r6,r6,-15152
    b0d0:	39f13404 	addi	r7,r7,-15152
    b0d4:	31c01026 	beq	r6,r7,b118 <alt_load+0x104>
    b0d8:	00800074 	movhi	r2,1
    b0dc:	10b16a04 	addi	r2,r2,-14936
    b0e0:	30800d26 	beq	r6,r2,b118 <alt_load+0x104>
    b0e4:	30c00104 	addi	r3,r6,4
    b0e8:	10c7c83a 	sub	r3,r2,r3
    b0ec:	1806d0ba 	srli	r3,r3,2
    b0f0:	0005883a 	mov	r2,zero
    b0f4:	18c00044 	addi	r3,r3,1
    b0f8:	18c7883a 	add	r3,r3,r3
    b0fc:	18c7883a 	add	r3,r3,r3
    b100:	11c9883a 	add	r4,r2,r7
    b104:	21400017 	ldw	r5,0(r4)
    b108:	1189883a 	add	r4,r2,r6
    b10c:	10800104 	addi	r2,r2,4
    b110:	21400015 	stw	r5,0(r4)
    b114:	10fffa1e 	bne	r2,r3,b100 <alt_load+0xec>
    b118:	000b87c0 	call	b87c <alt_dcache_flush_all>
    b11c:	dfc00017 	ldw	ra,0(sp)
    b120:	dec00104 	addi	sp,sp,4
    b124:	000b9c01 	jmpi	b9c0 <alt_icache_flush_all>

0000b128 <lseek>:
    b128:	defffa04 	addi	sp,sp,-24
    b12c:	dfc00515 	stw	ra,20(sp)
    b130:	dd000415 	stw	r20,16(sp)
    b134:	dcc00315 	stw	r19,12(sp)
    b138:	dc800215 	stw	r18,8(sp)
    b13c:	dc400115 	stw	r17,4(sp)
    b140:	dc000015 	stw	r16,0(sp)
    b144:	20001d16 	blt	r4,zero,b1bc <lseek+0x94>
    b148:	2827883a 	mov	r19,r5
    b14c:	04000074 	movhi	r16,1
    b150:	01400304 	movi	r5,12
    b154:	2023883a 	mov	r17,r4
    b158:	3029883a 	mov	r20,r6
    b15c:	84337504 	addi	r16,r16,-12844
    b160:	000ad8c0 	call	ad8c <__mulsi3>
    b164:	80a5883a 	add	r18,r16,r2
    b168:	90001426 	beq	r18,zero,b1bc <lseek+0x94>
    b16c:	01400304 	movi	r5,12
    b170:	8809883a 	mov	r4,r17
    b174:	000ad8c0 	call	ad8c <__mulsi3>
    b178:	8085883a 	add	r2,r16,r2
    b17c:	10800017 	ldw	r2,0(r2)
    b180:	10800717 	ldw	r2,28(r2)
    b184:	10001626 	beq	r2,zero,b1e0 <lseek+0xb8>
    b188:	a00d883a 	mov	r6,r20
    b18c:	980b883a 	mov	r5,r19
    b190:	9009883a 	mov	r4,r18
    b194:	103ee83a 	callr	r2
    b198:	10001616 	blt	r2,zero,b1f4 <lseek+0xcc>
    b19c:	dfc00517 	ldw	ra,20(sp)
    b1a0:	dd000417 	ldw	r20,16(sp)
    b1a4:	dcc00317 	ldw	r19,12(sp)
    b1a8:	dc800217 	ldw	r18,8(sp)
    b1ac:	dc400117 	ldw	r17,4(sp)
    b1b0:	dc000017 	ldw	r16,0(sp)
    b1b4:	dec00604 	addi	sp,sp,24
    b1b8:	f800283a 	ret
    b1bc:	04001444 	movi	r16,81
    b1c0:	00800074 	movhi	r2,1
    b1c4:	10b3fe04 	addi	r2,r2,-12296
    b1c8:	10800017 	ldw	r2,0(r2)
    b1cc:	10000626 	beq	r2,zero,b1e8 <lseek+0xc0>
    b1d0:	103ee83a 	callr	r2
    b1d4:	14000015 	stw	r16,0(r2)
    b1d8:	00bfffc4 	movi	r2,-1
    b1dc:	003fef06 	br	b19c <lseek+0x74>
    b1e0:	04002184 	movi	r16,134
    b1e4:	003ff606 	br	b1c0 <lseek+0x98>
    b1e8:	00800074 	movhi	r2,1
    b1ec:	10b69f04 	addi	r2,r2,-9604
    b1f0:	003ff806 	br	b1d4 <lseek+0xac>
    b1f4:	00a1c83a 	sub	r16,zero,r2
    b1f8:	003ff106 	br	b1c0 <lseek+0x98>

0000b1fc <alt_main>:
    b1fc:	defffe04 	addi	sp,sp,-8
    b200:	0009883a 	mov	r4,zero
    b204:	dfc00115 	stw	ra,4(sp)
    b208:	dc000015 	stw	r16,0(sp)
    b20c:	000b57c0 	call	b57c <alt_irq_init>
    b210:	000b59c0 	call	b59c <alt_sys_init>
    b214:	01400074 	movhi	r5,1
    b218:	29716704 	addi	r5,r5,-14948
    b21c:	01800074 	movhi	r6,1
    b220:	2809883a 	mov	r4,r5
    b224:	31b16204 	addi	r6,r6,-14968
    b228:	000bb540 	call	bb54 <alt_io_redirect>
    b22c:	000b8f80 	call	b8f8 <_do_ctors>
    b230:	01000074 	movhi	r4,1
    b234:	212e5704 	addi	r4,r4,-18084
    b238:	000c0c40 	call	c0c4 <atexit>
    b23c:	d1a2ab17 	ldw	r6,-30036(gp)
    b240:	d162ac17 	ldw	r5,-30032(gp)
    b244:	d122ad17 	ldw	r4,-30028(gp)
    b248:	00084f00 	call	84f0 <main>
    b24c:	01000044 	movi	r4,1
    b250:	1021883a 	mov	r16,r2
    b254:	000adb40 	call	adb4 <close>
    b258:	8009883a 	mov	r4,r16
    b25c:	000c0d80 	call	c0d8 <exit>

0000b260 <__malloc_lock>:
    b260:	f800283a 	ret

0000b264 <__malloc_unlock>:
    b264:	f800283a 	ret

0000b268 <read>:
    b268:	defffa04 	addi	sp,sp,-24
    b26c:	dfc00515 	stw	ra,20(sp)
    b270:	dd000415 	stw	r20,16(sp)
    b274:	dcc00315 	stw	r19,12(sp)
    b278:	dc800215 	stw	r18,8(sp)
    b27c:	dc400115 	stw	r17,4(sp)
    b280:	dc000015 	stw	r16,0(sp)
    b284:	20003416 	blt	r4,zero,b358 <read+0xf0>
    b288:	2827883a 	mov	r19,r5
    b28c:	04000074 	movhi	r16,1
    b290:	01400304 	movi	r5,12
    b294:	2025883a 	mov	r18,r4
    b298:	3029883a 	mov	r20,r6
    b29c:	84337504 	addi	r16,r16,-12844
    b2a0:	000ad8c0 	call	ad8c <__mulsi3>
    b2a4:	80a3883a 	add	r17,r16,r2
    b2a8:	88002b26 	beq	r17,zero,b358 <read+0xf0>
    b2ac:	88800217 	ldw	r2,8(r17)
    b2b0:	00c00044 	movi	r3,1
    b2b4:	108000cc 	andi	r2,r2,3
    b2b8:	10c01526 	beq	r2,r3,b310 <read+0xa8>
    b2bc:	01400304 	movi	r5,12
    b2c0:	9009883a 	mov	r4,r18
    b2c4:	000ad8c0 	call	ad8c <__mulsi3>
    b2c8:	8085883a 	add	r2,r16,r2
    b2cc:	10800017 	ldw	r2,0(r2)
    b2d0:	10800517 	ldw	r2,20(r2)
    b2d4:	10000e26 	beq	r2,zero,b310 <read+0xa8>
    b2d8:	a00d883a 	mov	r6,r20
    b2dc:	980b883a 	mov	r5,r19
    b2e0:	8809883a 	mov	r4,r17
    b2e4:	103ee83a 	callr	r2
    b2e8:	1021883a 	mov	r16,r2
    b2ec:	10001116 	blt	r2,zero,b334 <read+0xcc>
    b2f0:	dfc00517 	ldw	ra,20(sp)
    b2f4:	dd000417 	ldw	r20,16(sp)
    b2f8:	dcc00317 	ldw	r19,12(sp)
    b2fc:	dc800217 	ldw	r18,8(sp)
    b300:	dc400117 	ldw	r17,4(sp)
    b304:	dc000017 	ldw	r16,0(sp)
    b308:	dec00604 	addi	sp,sp,24
    b30c:	f800283a 	ret
    b310:	00800074 	movhi	r2,1
    b314:	10b3fe04 	addi	r2,r2,-12296
    b318:	10800017 	ldw	r2,0(r2)
    b31c:	10001726 	beq	r2,zero,b37c <read+0x114>
    b320:	103ee83a 	callr	r2
    b324:	00c00344 	movi	r3,13
    b328:	10c00015 	stw	r3,0(r2)
    b32c:	00bfffc4 	movi	r2,-1
    b330:	003fef06 	br	b2f0 <read+0x88>
    b334:	00800074 	movhi	r2,1
    b338:	10b3fe04 	addi	r2,r2,-12296
    b33c:	10800017 	ldw	r2,0(r2)
    b340:	10001126 	beq	r2,zero,b388 <read+0x120>
    b344:	103ee83a 	callr	r2
    b348:	0421c83a 	sub	r16,zero,r16
    b34c:	14000015 	stw	r16,0(r2)
    b350:	00bfffc4 	movi	r2,-1
    b354:	003fe606 	br	b2f0 <read+0x88>
    b358:	00800074 	movhi	r2,1
    b35c:	10b3fe04 	addi	r2,r2,-12296
    b360:	10800017 	ldw	r2,0(r2)
    b364:	10000b26 	beq	r2,zero,b394 <read+0x12c>
    b368:	103ee83a 	callr	r2
    b36c:	00c01444 	movi	r3,81
    b370:	10c00015 	stw	r3,0(r2)
    b374:	00bfffc4 	movi	r2,-1
    b378:	003fdd06 	br	b2f0 <read+0x88>
    b37c:	00800074 	movhi	r2,1
    b380:	10b69f04 	addi	r2,r2,-9604
    b384:	003fe706 	br	b324 <read+0xbc>
    b388:	00800074 	movhi	r2,1
    b38c:	10b69f04 	addi	r2,r2,-9604
    b390:	003fed06 	br	b348 <read+0xe0>
    b394:	00800074 	movhi	r2,1
    b398:	10b69f04 	addi	r2,r2,-9604
    b39c:	003ff306 	br	b36c <read+0x104>

0000b3a0 <alt_release_fd>:
    b3a0:	00c00084 	movi	r3,2
    b3a4:	1900140e 	bge	r3,r4,b3f8 <alt_release_fd+0x58>
    b3a8:	defffd04 	addi	sp,sp,-12
    b3ac:	dc400115 	stw	r17,4(sp)
    b3b0:	01400304 	movi	r5,12
    b3b4:	04400074 	movhi	r17,1
    b3b8:	dfc00215 	stw	ra,8(sp)
    b3bc:	dc000015 	stw	r16,0(sp)
    b3c0:	8c737504 	addi	r17,r17,-12844
    b3c4:	2021883a 	mov	r16,r4
    b3c8:	000ad8c0 	call	ad8c <__mulsi3>
    b3cc:	8885883a 	add	r2,r17,r2
    b3d0:	01400304 	movi	r5,12
    b3d4:	8009883a 	mov	r4,r16
    b3d8:	10000215 	stw	zero,8(r2)
    b3dc:	000ad8c0 	call	ad8c <__mulsi3>
    b3e0:	8885883a 	add	r2,r17,r2
    b3e4:	10000015 	stw	zero,0(r2)
    b3e8:	dfc00217 	ldw	ra,8(sp)
    b3ec:	dc400117 	ldw	r17,4(sp)
    b3f0:	dc000017 	ldw	r16,0(sp)
    b3f4:	dec00304 	addi	sp,sp,12
    b3f8:	f800283a 	ret

0000b3fc <sbrk>:
    b3fc:	000b303a 	rdctl	r5,status
    b400:	00bfff84 	movi	r2,-2
    b404:	2884703a 	and	r2,r5,r2
    b408:	1001703a 	wrctl	status,r2
    b40c:	d0a00a17 	ldw	r2,-32728(gp)
    b410:	00ffff04 	movi	r3,-4
    b414:	108000c4 	addi	r2,r2,3
    b418:	10c4703a 	and	r2,r2,r3
    b41c:	00c00074 	movhi	r3,1
    b420:	d0a00a15 	stw	r2,-32728(gp)
    b424:	1109883a 	add	r4,r2,r4
    b428:	18c00004 	addi	r3,r3,0
    b42c:	19000336 	bltu	r3,r4,b43c <sbrk+0x40>
    b430:	d1200a15 	stw	r4,-32728(gp)
    b434:	2801703a 	wrctl	status,r5
    b438:	f800283a 	ret
    b43c:	2801703a 	wrctl	status,r5
    b440:	00bfffc4 	movi	r2,-1
    b444:	f800283a 	ret

0000b448 <write>:
    b448:	defffa04 	addi	sp,sp,-24
    b44c:	dfc00515 	stw	ra,20(sp)
    b450:	dd000415 	stw	r20,16(sp)
    b454:	dcc00315 	stw	r19,12(sp)
    b458:	dc800215 	stw	r18,8(sp)
    b45c:	dc400115 	stw	r17,4(sp)
    b460:	dc000015 	stw	r16,0(sp)
    b464:	20003616 	blt	r4,zero,b540 <write+0xf8>
    b468:	2827883a 	mov	r19,r5
    b46c:	04000074 	movhi	r16,1
    b470:	01400304 	movi	r5,12
    b474:	2025883a 	mov	r18,r4
    b478:	3029883a 	mov	r20,r6
    b47c:	84337504 	addi	r16,r16,-12844
    b480:	000ad8c0 	call	ad8c <__mulsi3>
    b484:	80a3883a 	add	r17,r16,r2
    b488:	88002d26 	beq	r17,zero,b540 <write+0xf8>
    b48c:	88800217 	ldw	r2,8(r17)
    b490:	108000cc 	andi	r2,r2,3
    b494:	10001526 	beq	r2,zero,b4ec <write+0xa4>
    b498:	01400304 	movi	r5,12
    b49c:	9009883a 	mov	r4,r18
    b4a0:	000ad8c0 	call	ad8c <__mulsi3>
    b4a4:	8085883a 	add	r2,r16,r2
    b4a8:	10800017 	ldw	r2,0(r2)
    b4ac:	10800617 	ldw	r2,24(r2)
    b4b0:	10000e26 	beq	r2,zero,b4ec <write+0xa4>
    b4b4:	a00d883a 	mov	r6,r20
    b4b8:	980b883a 	mov	r5,r19
    b4bc:	8809883a 	mov	r4,r17
    b4c0:	103ee83a 	callr	r2
    b4c4:	1021883a 	mov	r16,r2
    b4c8:	10001416 	blt	r2,zero,b51c <write+0xd4>
    b4cc:	dfc00517 	ldw	ra,20(sp)
    b4d0:	dd000417 	ldw	r20,16(sp)
    b4d4:	dcc00317 	ldw	r19,12(sp)
    b4d8:	dc800217 	ldw	r18,8(sp)
    b4dc:	dc400117 	ldw	r17,4(sp)
    b4e0:	dc000017 	ldw	r16,0(sp)
    b4e4:	dec00604 	addi	sp,sp,24
    b4e8:	f800283a 	ret
    b4ec:	00800074 	movhi	r2,1
    b4f0:	10b3fe04 	addi	r2,r2,-12296
    b4f4:	10800017 	ldw	r2,0(r2)
    b4f8:	10000526 	beq	r2,zero,b510 <write+0xc8>
    b4fc:	103ee83a 	callr	r2
    b500:	00c00344 	movi	r3,13
    b504:	10c00015 	stw	r3,0(r2)
    b508:	00bfffc4 	movi	r2,-1
    b50c:	003fef06 	br	b4cc <write+0x84>
    b510:	00800074 	movhi	r2,1
    b514:	10b69f04 	addi	r2,r2,-9604
    b518:	003ff906 	br	b500 <write+0xb8>
    b51c:	00800074 	movhi	r2,1
    b520:	10b3fe04 	addi	r2,r2,-12296
    b524:	10800017 	ldw	r2,0(r2)
    b528:	10000e26 	beq	r2,zero,b564 <write+0x11c>
    b52c:	103ee83a 	callr	r2
    b530:	0421c83a 	sub	r16,zero,r16
    b534:	14000015 	stw	r16,0(r2)
    b538:	00bfffc4 	movi	r2,-1
    b53c:	003fe306 	br	b4cc <write+0x84>
    b540:	00800074 	movhi	r2,1
    b544:	10b3fe04 	addi	r2,r2,-12296
    b548:	10800017 	ldw	r2,0(r2)
    b54c:	10000826 	beq	r2,zero,b570 <write+0x128>
    b550:	103ee83a 	callr	r2
    b554:	00c01444 	movi	r3,81
    b558:	10c00015 	stw	r3,0(r2)
    b55c:	00bfffc4 	movi	r2,-1
    b560:	003fda06 	br	b4cc <write+0x84>
    b564:	00800074 	movhi	r2,1
    b568:	10b69f04 	addi	r2,r2,-9604
    b56c:	003ff006 	br	b530 <write+0xe8>
    b570:	00800074 	movhi	r2,1
    b574:	10b69f04 	addi	r2,r2,-9604
    b578:	003ff606 	br	b554 <write+0x10c>

0000b57c <alt_irq_init>:
    b57c:	deffff04 	addi	sp,sp,-4
    b580:	dfc00015 	stw	ra,0(sp)
    b584:	000be900 	call	be90 <altera_nios2_gen2_irq_init>
    b588:	00800044 	movi	r2,1
    b58c:	1001703a 	wrctl	status,r2
    b590:	dfc00017 	ldw	ra,0(sp)
    b594:	dec00104 	addi	sp,sp,4
    b598:	f800283a 	ret

0000b59c <alt_sys_init>:
    b59c:	01000074 	movhi	r4,1
    b5a0:	defffe04 	addi	sp,sp,-8
    b5a4:	01c0fa04 	movi	r7,1000
    b5a8:	01800044 	movi	r6,1
    b5ac:	21044804 	addi	r4,r4,4384
    b5b0:	000b883a 	mov	r5,zero
    b5b4:	dfc00115 	stw	ra,4(sp)
    b5b8:	dc000015 	stw	r16,0(sp)
    b5bc:	000b6f80 	call	b6f8 <alt_avalon_timer_sc_init>
    b5c0:	04000074 	movhi	r16,1
    b5c4:	8433fa04 	addi	r16,r16,-12312
    b5c8:	01000074 	movhi	r4,1
    b5cc:	800b883a 	mov	r5,r16
    b5d0:	2133ea04 	addi	r4,r4,-12376
    b5d4:	000b8800 	call	b880 <alt_dev_llist_insert>
    b5d8:	01000074 	movhi	r4,1
    b5dc:	800b883a 	mov	r5,r16
    b5e0:	2133df04 	addi	r4,r4,-12420
    b5e4:	dfc00117 	ldw	ra,4(sp)
    b5e8:	dc000017 	ldw	r16,0(sp)
    b5ec:	dec00204 	addi	sp,sp,8
    b5f0:	000b8801 	jmpi	b880 <alt_dev_llist_insert>

0000b5f4 <altera_avalon_jtag_uart_read_fd>:
    b5f4:	20800017 	ldw	r2,0(r4)
    b5f8:	21c00217 	ldw	r7,8(r4)
    b5fc:	11000a04 	addi	r4,r2,40
    b600:	000b6141 	jmpi	b614 <altera_avalon_jtag_uart_read>

0000b604 <altera_avalon_jtag_uart_write_fd>:
    b604:	20800017 	ldw	r2,0(r4)
    b608:	21c00217 	ldw	r7,8(r4)
    b60c:	11000a04 	addi	r4,r2,40
    b610:	000b6881 	jmpi	b688 <altera_avalon_jtag_uart_write>

0000b614 <altera_avalon_jtag_uart_read>:
    b614:	298d883a 	add	r6,r5,r6
    b618:	22400017 	ldw	r9,0(r4)
    b61c:	2980162e 	bgeu	r5,r6,b678 <altera_avalon_jtag_uart_read+0x64>
    b620:	2807883a 	mov	r3,r5
    b624:	3a90000c 	andi	r10,r7,16384
    b628:	00000306 	br	b638 <altera_avalon_jtag_uart_read+0x24>
    b62c:	19000005 	stb	r4,0(r3)
    b630:	1180092e 	bgeu	r2,r6,b658 <altera_avalon_jtag_uart_read+0x44>
    b634:	1007883a 	mov	r3,r2
    b638:	49000037 	ldwio	r4,0(r9)
    b63c:	2220000c 	andi	r8,r4,32768
    b640:	18800044 	addi	r2,r3,1
    b644:	403ff91e 	bne	r8,zero,b62c <altera_avalon_jtag_uart_read+0x18>
    b648:	28c0061e 	bne	r5,r3,b664 <altera_avalon_jtag_uart_read+0x50>
    b64c:	5000081e 	bne	r10,zero,b670 <altera_avalon_jtag_uart_read+0x5c>
    b650:	2805883a 	mov	r2,r5
    b654:	003ff706 	br	b634 <altera_avalon_jtag_uart_read+0x20>
    b658:	28800726 	beq	r5,r2,b678 <altera_avalon_jtag_uart_read+0x64>
    b65c:	1145c83a 	sub	r2,r2,r5
    b660:	f800283a 	ret
    b664:	1805883a 	mov	r2,r3
    b668:	1145c83a 	sub	r2,r2,r5
    b66c:	f800283a 	ret
    b670:	00bffd44 	movi	r2,-11
    b674:	f800283a 	ret
    b678:	39d0000c 	andi	r7,r7,16384
    b67c:	383ffc1e 	bne	r7,zero,b670 <altera_avalon_jtag_uart_read+0x5c>
    b680:	00bffec4 	movi	r2,-5
    b684:	f800283a 	ret

0000b688 <altera_avalon_jtag_uart_write>:
    b688:	21c00017 	ldw	r7,0(r4)
    b68c:	3005883a 	mov	r2,r6
    b690:	298d883a 	add	r6,r5,r6
    b694:	39000104 	addi	r4,r7,4
    b698:	2980072e 	bgeu	r5,r6,b6b8 <altera_avalon_jtag_uart_write+0x30>
    b69c:	20c00037 	ldwio	r3,0(r4)
    b6a0:	18ffffec 	andhi	r3,r3,65535
    b6a4:	183ffd26 	beq	r3,zero,b69c <altera_avalon_jtag_uart_write+0x14>
    b6a8:	28c00007 	ldb	r3,0(r5)
    b6ac:	38c00035 	stwio	r3,0(r7)
    b6b0:	29400044 	addi	r5,r5,1
    b6b4:	003ff806 	br	b698 <altera_avalon_jtag_uart_write+0x10>
    b6b8:	f800283a 	ret

0000b6bc <alt_avalon_timer_sc_irq>:
    b6bc:	defffe04 	addi	sp,sp,-8
    b6c0:	dfc00115 	stw	ra,4(sp)
    b6c4:	dc000015 	stw	r16,0(sp)
    b6c8:	20000035 	stwio	zero,0(r4)
    b6cc:	20800137 	ldwio	r2,4(r4)
    b6d0:	0021303a 	rdctl	r16,status
    b6d4:	00bfff84 	movi	r2,-2
    b6d8:	8084703a 	and	r2,r16,r2
    b6dc:	1001703a 	wrctl	status,r2
    b6e0:	000bd9c0 	call	bd9c <alt_tick>
    b6e4:	8001703a 	wrctl	status,r16
    b6e8:	dfc00117 	ldw	ra,4(sp)
    b6ec:	dc000017 	ldw	r16,0(sp)
    b6f0:	dec00204 	addi	sp,sp,8
    b6f4:	f800283a 	ret

0000b6f8 <alt_avalon_timer_sc_init>:
    b6f8:	00c00074 	movhi	r3,1
    b6fc:	18f6a504 	addi	r3,r3,-9580
    b700:	1a000017 	ldw	r8,0(r3)
    b704:	defffe04 	addi	sp,sp,-8
    b708:	dfc00115 	stw	ra,4(sp)
    b70c:	2005883a 	mov	r2,r4
    b710:	2809883a 	mov	r4,r5
    b714:	300b883a 	mov	r5,r6
    b718:	4000011e 	bne	r8,zero,b720 <alt_avalon_timer_sc_init+0x28>
    b71c:	19c00015 	stw	r7,0(r3)
    b720:	00c001c4 	movi	r3,7
    b724:	10c00135 	stwio	r3,4(r2)
    b728:	01800074 	movhi	r6,1
    b72c:	31adaf04 	addi	r6,r6,-18756
    b730:	d8000015 	stw	zero,0(sp)
    b734:	100f883a 	mov	r7,r2
    b738:	000b9c40 	call	b9c4 <alt_ic_isr_register>
    b73c:	dfc00117 	ldw	ra,4(sp)
    b740:	dec00204 	addi	sp,sp,8
    b744:	f800283a 	ret

0000b748 <altera_avalon_uart_read_fd>:
    b748:	20800017 	ldw	r2,0(r4)
    b74c:	21c00217 	ldw	r7,8(r4)
    b750:	11000a04 	addi	r4,r2,40
    b754:	000b7681 	jmpi	b768 <altera_avalon_uart_read>

0000b758 <altera_avalon_uart_write_fd>:
    b758:	20800017 	ldw	r2,0(r4)
    b75c:	21c00217 	ldw	r7,8(r4)
    b760:	11000a04 	addi	r4,r2,40
    b764:	000b7f01 	jmpi	b7f0 <altera_avalon_uart_write>

0000b768 <altera_avalon_uart_read>:
    b768:	39d0000c 	andi	r7,r7,16384
    b76c:	20800017 	ldw	r2,0(r4)
    b770:	10800204 	addi	r2,r2,8
    b774:	10c00037 	ldwio	r3,0(r2)
    b778:	10000035 	stwio	zero,0(r2)
    b77c:	1880200c 	andi	r2,r3,128
    b780:	10000e1e 	bne	r2,zero,b7bc <altera_avalon_uart_read+0x54>
    b784:	383ff926 	beq	r7,zero,b76c <altera_avalon_uart_read+0x4>
    b788:	00800074 	movhi	r2,1
    b78c:	10b3fe04 	addi	r2,r2,-12296
    b790:	10800017 	ldw	r2,0(r2)
    b794:	10001026 	beq	r2,zero,b7d8 <altera_avalon_uart_read+0x70>
    b798:	deffff04 	addi	sp,sp,-4
    b79c:	dfc00015 	stw	ra,0(sp)
    b7a0:	103ee83a 	callr	r2
    b7a4:	00c002c4 	movi	r3,11
    b7a8:	10c00015 	stw	r3,0(r2)
    b7ac:	0005883a 	mov	r2,zero
    b7b0:	dfc00017 	ldw	ra,0(sp)
    b7b4:	dec00104 	addi	sp,sp,4
    b7b8:	f800283a 	ret
    b7bc:	20800017 	ldw	r2,0(r4)
    b7c0:	10800037 	ldwio	r2,0(r2)
    b7c4:	28800005 	stb	r2,0(r5)
    b7c8:	18c000cc 	andi	r3,r3,3
    b7cc:	183fed1e 	bne	r3,zero,b784 <altera_avalon_uart_read+0x1c>
    b7d0:	00800044 	movi	r2,1
    b7d4:	f800283a 	ret
    b7d8:	00800074 	movhi	r2,1
    b7dc:	10b69f04 	addi	r2,r2,-9604
    b7e0:	00c002c4 	movi	r3,11
    b7e4:	10c00015 	stw	r3,0(r2)
    b7e8:	0005883a 	mov	r2,zero
    b7ec:	f800283a 	ret

0000b7f0 <altera_avalon_uart_write>:
    b7f0:	defffd04 	addi	sp,sp,-12
    b7f4:	dc000115 	stw	r16,4(sp)
    b7f8:	dfc00215 	stw	ra,8(sp)
    b7fc:	39d0000c 	andi	r7,r7,16384
    b800:	3021883a 	mov	r16,r6
    b804:	20c00017 	ldw	r3,0(r4)
    b808:	18800237 	ldwio	r2,8(r3)
    b80c:	1080100c 	andi	r2,r2,64
    b810:	1000071e 	bne	r2,zero,b830 <altera_avalon_uart_write+0x40>
    b814:	38000b1e 	bne	r7,zero,b844 <altera_avalon_uart_write+0x54>
    b818:	803ffa1e 	bne	r16,zero,b804 <altera_avalon_uart_write+0x14>
    b81c:	3405c83a 	sub	r2,r6,r16
    b820:	dfc00217 	ldw	ra,8(sp)
    b824:	dc000117 	ldw	r16,4(sp)
    b828:	dec00304 	addi	sp,sp,12
    b82c:	f800283a 	ret
    b830:	28800007 	ldb	r2,0(r5)
    b834:	29400044 	addi	r5,r5,1
    b838:	18800135 	stwio	r2,4(r3)
    b83c:	843fffc4 	addi	r16,r16,-1
    b840:	383ff526 	beq	r7,zero,b818 <altera_avalon_uart_write+0x28>
    b844:	803ff526 	beq	r16,zero,b81c <altera_avalon_uart_write+0x2c>
    b848:	00800074 	movhi	r2,1
    b84c:	10b3fe04 	addi	r2,r2,-12296
    b850:	10800017 	ldw	r2,0(r2)
    b854:	10000626 	beq	r2,zero,b870 <altera_avalon_uart_write+0x80>
    b858:	d9800015 	stw	r6,0(sp)
    b85c:	103ee83a 	callr	r2
    b860:	d9800017 	ldw	r6,0(sp)
    b864:	00c002c4 	movi	r3,11
    b868:	10c00015 	stw	r3,0(r2)
    b86c:	003feb06 	br	b81c <altera_avalon_uart_write+0x2c>
    b870:	00800074 	movhi	r2,1
    b874:	10b69f04 	addi	r2,r2,-9604
    b878:	003ffa06 	br	b864 <altera_avalon_uart_write+0x74>

0000b87c <alt_dcache_flush_all>:
    b87c:	f800283a 	ret

0000b880 <alt_dev_llist_insert>:
    b880:	20000a26 	beq	r4,zero,b8ac <alt_dev_llist_insert+0x2c>
    b884:	20800217 	ldw	r2,8(r4)
    b888:	10000826 	beq	r2,zero,b8ac <alt_dev_llist_insert+0x2c>
    b88c:	28c00017 	ldw	r3,0(r5)
    b890:	21400115 	stw	r5,4(r4)
    b894:	0005883a 	mov	r2,zero
    b898:	20c00015 	stw	r3,0(r4)
    b89c:	28c00017 	ldw	r3,0(r5)
    b8a0:	19000115 	stw	r4,4(r3)
    b8a4:	29000015 	stw	r4,0(r5)
    b8a8:	f800283a 	ret
    b8ac:	00800074 	movhi	r2,1
    b8b0:	10b3fe04 	addi	r2,r2,-12296
    b8b4:	10800017 	ldw	r2,0(r2)
    b8b8:	10000926 	beq	r2,zero,b8e0 <alt_dev_llist_insert+0x60>
    b8bc:	deffff04 	addi	sp,sp,-4
    b8c0:	dfc00015 	stw	ra,0(sp)
    b8c4:	103ee83a 	callr	r2
    b8c8:	00c00584 	movi	r3,22
    b8cc:	10c00015 	stw	r3,0(r2)
    b8d0:	00bffa84 	movi	r2,-22
    b8d4:	dfc00017 	ldw	ra,0(sp)
    b8d8:	dec00104 	addi	sp,sp,4
    b8dc:	f800283a 	ret
    b8e0:	00800074 	movhi	r2,1
    b8e4:	10b69f04 	addi	r2,r2,-9604
    b8e8:	00c00584 	movi	r3,22
    b8ec:	10c00015 	stw	r3,0(r2)
    b8f0:	00bffa84 	movi	r2,-22
    b8f4:	f800283a 	ret

0000b8f8 <_do_ctors>:
    b8f8:	defffc04 	addi	sp,sp,-16
    b8fc:	dc800215 	stw	r18,8(sp)
    b900:	dc000015 	stw	r16,0(sp)
    b904:	04800074 	movhi	r18,1
    b908:	04000074 	movhi	r16,1
    b90c:	dfc00315 	stw	ra,12(sp)
    b910:	dc400115 	stw	r17,4(sp)
    b914:	84313304 	addi	r16,r16,-15156
    b918:	94b13404 	addi	r18,r18,-15152
    b91c:	84800936 	bltu	r16,r18,b944 <_do_ctors+0x4c>
    b920:	84a5c83a 	sub	r18,r16,r18
    b924:	9024d0ba 	srli	r18,r18,2
    b928:	0023883a 	mov	r17,zero
    b92c:	94800044 	addi	r18,r18,1
    b930:	80800017 	ldw	r2,0(r16)
    b934:	8c400044 	addi	r17,r17,1
    b938:	843fff04 	addi	r16,r16,-4
    b93c:	103ee83a 	callr	r2
    b940:	8cbffb1e 	bne	r17,r18,b930 <_do_ctors+0x38>
    b944:	dfc00317 	ldw	ra,12(sp)
    b948:	dc800217 	ldw	r18,8(sp)
    b94c:	dc400117 	ldw	r17,4(sp)
    b950:	dc000017 	ldw	r16,0(sp)
    b954:	dec00404 	addi	sp,sp,16
    b958:	f800283a 	ret

0000b95c <_do_dtors>:
    b95c:	defffc04 	addi	sp,sp,-16
    b960:	dc800215 	stw	r18,8(sp)
    b964:	dc000015 	stw	r16,0(sp)
    b968:	04800074 	movhi	r18,1
    b96c:	04000074 	movhi	r16,1
    b970:	dfc00315 	stw	ra,12(sp)
    b974:	dc400115 	stw	r17,4(sp)
    b978:	84313304 	addi	r16,r16,-15156
    b97c:	94b13404 	addi	r18,r18,-15152
    b980:	84800936 	bltu	r16,r18,b9a8 <_do_dtors+0x4c>
    b984:	84a5c83a 	sub	r18,r16,r18
    b988:	9024d0ba 	srli	r18,r18,2
    b98c:	0023883a 	mov	r17,zero
    b990:	94800044 	addi	r18,r18,1
    b994:	80800017 	ldw	r2,0(r16)
    b998:	8c400044 	addi	r17,r17,1
    b99c:	843fff04 	addi	r16,r16,-4
    b9a0:	103ee83a 	callr	r2
    b9a4:	8cbffb1e 	bne	r17,r18,b994 <_do_dtors+0x38>
    b9a8:	dfc00317 	ldw	ra,12(sp)
    b9ac:	dc800217 	ldw	r18,8(sp)
    b9b0:	dc400117 	ldw	r17,4(sp)
    b9b4:	dc000017 	ldw	r16,0(sp)
    b9b8:	dec00404 	addi	sp,sp,16
    b9bc:	f800283a 	ret

0000b9c0 <alt_icache_flush_all>:
    b9c0:	f800283a 	ret

0000b9c4 <alt_ic_isr_register>:
    b9c4:	000ba601 	jmpi	ba60 <alt_iic_isr_register>

0000b9c8 <alt_ic_irq_enable>:
    b9c8:	0009303a 	rdctl	r4,status
    b9cc:	00bfff84 	movi	r2,-2
    b9d0:	2084703a 	and	r2,r4,r2
    b9d4:	1001703a 	wrctl	status,r2
    b9d8:	00800074 	movhi	r2,1
    b9dc:	10b6a304 	addi	r2,r2,-9588
    b9e0:	00c00044 	movi	r3,1
    b9e4:	194a983a 	sll	r5,r3,r5
    b9e8:	10c00017 	ldw	r3,0(r2)
    b9ec:	28cab03a 	or	r5,r5,r3
    b9f0:	11400015 	stw	r5,0(r2)
    b9f4:	10800017 	ldw	r2,0(r2)
    b9f8:	100170fa 	wrctl	ienable,r2
    b9fc:	2001703a 	wrctl	status,r4
    ba00:	0005883a 	mov	r2,zero
    ba04:	f800283a 	ret

0000ba08 <alt_ic_irq_disable>:
    ba08:	0009303a 	rdctl	r4,status
    ba0c:	00bfff84 	movi	r2,-2
    ba10:	2084703a 	and	r2,r4,r2
    ba14:	1001703a 	wrctl	status,r2
    ba18:	00800074 	movhi	r2,1
    ba1c:	10b6a304 	addi	r2,r2,-9588
    ba20:	00ffff84 	movi	r3,-2
    ba24:	194a183a 	rol	r5,r3,r5
    ba28:	10c00017 	ldw	r3,0(r2)
    ba2c:	28ca703a 	and	r5,r5,r3
    ba30:	11400015 	stw	r5,0(r2)
    ba34:	10800017 	ldw	r2,0(r2)
    ba38:	100170fa 	wrctl	ienable,r2
    ba3c:	2001703a 	wrctl	status,r4
    ba40:	0005883a 	mov	r2,zero
    ba44:	f800283a 	ret

0000ba48 <alt_ic_irq_enabled>:
    ba48:	000730fa 	rdctl	r3,ienable
    ba4c:	00800044 	movi	r2,1
    ba50:	1144983a 	sll	r2,r2,r5
    ba54:	10c4703a 	and	r2,r2,r3
    ba58:	1004c03a 	cmpne	r2,r2,zero
    ba5c:	f800283a 	ret

0000ba60 <alt_iic_isr_register>:
    ba60:	00c007c4 	movi	r3,31
    ba64:	19401616 	blt	r3,r5,bac0 <alt_iic_isr_register+0x60>
    ba68:	defffe04 	addi	sp,sp,-8
    ba6c:	dfc00115 	stw	ra,4(sp)
    ba70:	dc000015 	stw	r16,0(sp)
    ba74:	0021303a 	rdctl	r16,status
    ba78:	00ffff84 	movi	r3,-2
    ba7c:	80c6703a 	and	r3,r16,r3
    ba80:	1801703a 	wrctl	status,r3
    ba84:	280490fa 	slli	r2,r5,3
    ba88:	00c00074 	movhi	r3,1
    ba8c:	18f6b404 	addi	r3,r3,-9520
    ba90:	1885883a 	add	r2,r3,r2
    ba94:	11800015 	stw	r6,0(r2)
    ba98:	11c00115 	stw	r7,4(r2)
    ba9c:	30000626 	beq	r6,zero,bab8 <alt_iic_isr_register+0x58>
    baa0:	000b9c80 	call	b9c8 <alt_ic_irq_enable>
    baa4:	8001703a 	wrctl	status,r16
    baa8:	dfc00117 	ldw	ra,4(sp)
    baac:	dc000017 	ldw	r16,0(sp)
    bab0:	dec00204 	addi	sp,sp,8
    bab4:	f800283a 	ret
    bab8:	000ba080 	call	ba08 <alt_ic_irq_disable>
    babc:	003ff906 	br	baa4 <alt_iic_isr_register+0x44>
    bac0:	00bffa84 	movi	r2,-22
    bac4:	f800283a 	ret

0000bac8 <alt_open_fd.constprop.0>:
    bac8:	defffd04 	addi	sp,sp,-12
    bacc:	2805883a 	mov	r2,r5
    bad0:	dc400115 	stw	r17,4(sp)
    bad4:	300b883a 	mov	r5,r6
    bad8:	2023883a 	mov	r17,r4
    badc:	01807fc4 	movi	r6,511
    bae0:	1009883a 	mov	r4,r2
    bae4:	dfc00215 	stw	ra,8(sp)
    bae8:	dc000015 	stw	r16,0(sp)
    baec:	000bbc80 	call	bbc8 <open>
    baf0:	10001316 	blt	r2,zero,bb40 <alt_open_fd.constprop.0+0x78>
    baf4:	1009883a 	mov	r4,r2
    baf8:	01400304 	movi	r5,12
    bafc:	1021883a 	mov	r16,r2
    bb00:	000ad8c0 	call	ad8c <__mulsi3>
    bb04:	00c00074 	movhi	r3,1
    bb08:	18f37504 	addi	r3,r3,-12844
    bb0c:	1885883a 	add	r2,r3,r2
    bb10:	11400017 	ldw	r5,0(r2)
    bb14:	10c00217 	ldw	r3,8(r2)
    bb18:	8009883a 	mov	r4,r16
    bb1c:	89400015 	stw	r5,0(r17)
    bb20:	10800117 	ldw	r2,4(r2)
    bb24:	88c00215 	stw	r3,8(r17)
    bb28:	88800115 	stw	r2,4(r17)
    bb2c:	dfc00217 	ldw	ra,8(sp)
    bb30:	dc400117 	ldw	r17,4(sp)
    bb34:	dc000017 	ldw	r16,0(sp)
    bb38:	dec00304 	addi	sp,sp,12
    bb3c:	000b3a01 	jmpi	b3a0 <alt_release_fd>
    bb40:	dfc00217 	ldw	ra,8(sp)
    bb44:	dc400117 	ldw	r17,4(sp)
    bb48:	dc000017 	ldw	r16,0(sp)
    bb4c:	dec00304 	addi	sp,sp,12
    bb50:	f800283a 	ret

0000bb54 <alt_io_redirect>:
    bb54:	defffb04 	addi	sp,sp,-20
    bb58:	dc000015 	stw	r16,0(sp)
    bb5c:	04000074 	movhi	r16,1
    bb60:	84337804 	addi	r16,r16,-12832
    bb64:	dc400115 	stw	r17,4(sp)
    bb68:	04400044 	movi	r17,1
    bb6c:	dcc00315 	stw	r19,12(sp)
    bb70:	dc800215 	stw	r18,8(sp)
    bb74:	2827883a 	mov	r19,r5
    bb78:	3025883a 	mov	r18,r6
    bb7c:	200b883a 	mov	r5,r4
    bb80:	880d883a 	mov	r6,r17
    bb84:	8009883a 	mov	r4,r16
    bb88:	dfc00415 	stw	ra,16(sp)
    bb8c:	000bac80 	call	bac8 <alt_open_fd.constprop.0>
    bb90:	813ffd04 	addi	r4,r16,-12
    bb94:	980b883a 	mov	r5,r19
    bb98:	000d883a 	mov	r6,zero
    bb9c:	000bac80 	call	bac8 <alt_open_fd.constprop.0>
    bba0:	880d883a 	mov	r6,r17
    bba4:	900b883a 	mov	r5,r18
    bba8:	81000304 	addi	r4,r16,12
    bbac:	dfc00417 	ldw	ra,16(sp)
    bbb0:	dcc00317 	ldw	r19,12(sp)
    bbb4:	dc800217 	ldw	r18,8(sp)
    bbb8:	dc400117 	ldw	r17,4(sp)
    bbbc:	dc000017 	ldw	r16,0(sp)
    bbc0:	dec00504 	addi	sp,sp,20
    bbc4:	000bac81 	jmpi	bac8 <alt_open_fd.constprop.0>

0000bbc8 <open>:
    bbc8:	defffa04 	addi	sp,sp,-24
    bbcc:	dc000015 	stw	r16,0(sp)
    bbd0:	2821883a 	mov	r16,r5
    bbd4:	01400074 	movhi	r5,1
    bbd8:	2973fa04 	addi	r5,r5,-12312
    bbdc:	dc800215 	stw	r18,8(sp)
    bbe0:	dc400115 	stw	r17,4(sp)
    bbe4:	dfc00515 	stw	ra,20(sp)
    bbe8:	dd000415 	stw	r20,16(sp)
    bbec:	dcc00315 	stw	r19,12(sp)
    bbf0:	2023883a 	mov	r17,r4
    bbf4:	3025883a 	mov	r18,r6
    bbf8:	000be980 	call	be98 <alt_find_dev>
    bbfc:	10004e26 	beq	r2,zero,bd38 <open+0x170>
    bc00:	1009883a 	mov	r4,r2
    bc04:	1029883a 	mov	r20,r2
    bc08:	000bfc00 	call	bfc0 <alt_get_fd>
    bc0c:	1027883a 	mov	r19,r2
    bc10:	10000b0e 	bge	r2,zero,bc40 <open+0x78>
    bc14:	04e1c83a 	sub	r16,zero,r19
    bc18:	9809883a 	mov	r4,r19
    bc1c:	000b3a00 	call	b3a0 <alt_release_fd>
    bc20:	00800074 	movhi	r2,1
    bc24:	10b3fe04 	addi	r2,r2,-12296
    bc28:	10800017 	ldw	r2,0(r2)
    bc2c:	10004926 	beq	r2,zero,bd54 <open+0x18c>
    bc30:	103ee83a 	callr	r2
    bc34:	14000015 	stw	r16,0(r2)
    bc38:	00bfffc4 	movi	r2,-1
    bc3c:	00003406 	br	bd10 <open+0x148>
    bc40:	01400304 	movi	r5,12
    bc44:	9809883a 	mov	r4,r19
    bc48:	000ad8c0 	call	ad8c <__mulsi3>
    bc4c:	00c00074 	movhi	r3,1
    bc50:	01500034 	movhi	r5,16384
    bc54:	18f37504 	addi	r3,r3,-12844
    bc58:	297fffc4 	addi	r5,r5,-1
    bc5c:	1889883a 	add	r4,r3,r2
    bc60:	814a703a 	and	r5,r16,r5
    bc64:	00800074 	movhi	r2,1
    bc68:	29500034 	orhi	r5,r5,16384
    bc6c:	10b3f904 	addi	r2,r2,-12316
    bc70:	21400215 	stw	r5,8(r4)
    bc74:	12400017 	ldw	r9,0(r2)
    bc78:	22000017 	ldw	r8,0(r4)
    bc7c:	19800204 	addi	r6,r3,8
    bc80:	000b883a 	mov	r5,zero
    bc84:	00000306 	br	bc94 <open+0xcc>
    bc88:	18c00304 	addi	r3,r3,12
    bc8c:	31800304 	addi	r6,r6,12
    bc90:	49401636 	bltu	r9,r5,bcec <open+0x124>
    bc94:	19c00017 	ldw	r7,0(r3)
    bc98:	29400044 	addi	r5,r5,1
    bc9c:	3a3ffa1e 	bne	r7,r8,bc88 <open+0xc0>
    bca0:	30800017 	ldw	r2,0(r6)
    bca4:	103ff80e 	bge	r2,zero,bc88 <open+0xc0>
    bca8:	20fff726 	beq	r4,r3,bc88 <open+0xc0>
    bcac:	04000344 	movi	r16,13
    bcb0:	003fd906 	br	bc18 <open+0x50>
    bcb4:	1009883a 	mov	r4,r2
    bcb8:	000bfc00 	call	bfc0 <alt_get_fd>
    bcbc:	1027883a 	mov	r19,r2
    bcc0:	103fd416 	blt	r2,zero,bc14 <open+0x4c>
    bcc4:	9809883a 	mov	r4,r19
    bcc8:	01400304 	movi	r5,12
    bccc:	000ad8c0 	call	ad8c <__mulsi3>
    bcd0:	01000074 	movhi	r4,1
    bcd4:	21337504 	addi	r4,r4,-12844
    bcd8:	2089883a 	add	r4,r4,r2
    bcdc:	00900034 	movhi	r2,16384
    bce0:	10bfffc4 	addi	r2,r2,-1
    bce4:	8084703a 	and	r2,r16,r2
    bce8:	20800215 	stw	r2,8(r4)
    bcec:	a0800317 	ldw	r2,12(r20)
    bcf0:	10000f26 	beq	r2,zero,bd30 <open+0x168>
    bcf4:	900f883a 	mov	r7,r18
    bcf8:	800d883a 	mov	r6,r16
    bcfc:	880b883a 	mov	r5,r17
    bd00:	103ee83a 	callr	r2
    bd04:	1007883a 	mov	r3,r2
    bd08:	9805883a 	mov	r2,r19
    bd0c:	18001416 	blt	r3,zero,bd60 <open+0x198>
    bd10:	dfc00517 	ldw	ra,20(sp)
    bd14:	dd000417 	ldw	r20,16(sp)
    bd18:	dcc00317 	ldw	r19,12(sp)
    bd1c:	dc800217 	ldw	r18,8(sp)
    bd20:	dc400117 	ldw	r17,4(sp)
    bd24:	dc000017 	ldw	r16,0(sp)
    bd28:	dec00604 	addi	sp,sp,24
    bd2c:	f800283a 	ret
    bd30:	9805883a 	mov	r2,r19
    bd34:	003ff606 	br	bd10 <open+0x148>
    bd38:	8809883a 	mov	r4,r17
    bd3c:	000bf100 	call	bf10 <alt_find_file>
    bd40:	1029883a 	mov	r20,r2
    bd44:	103fdb1e 	bne	r2,zero,bcb4 <open+0xec>
    bd48:	040004c4 	movi	r16,19
    bd4c:	04ffffc4 	movi	r19,-1
    bd50:	003fb106 	br	bc18 <open+0x50>
    bd54:	00800074 	movhi	r2,1
    bd58:	10b69f04 	addi	r2,r2,-9604
    bd5c:	003fb506 	br	bc34 <open+0x6c>
    bd60:	00e1c83a 	sub	r16,zero,r3
    bd64:	003fac06 	br	bc18 <open+0x50>

0000bd68 <alt_alarm_stop>:
    bd68:	0007303a 	rdctl	r3,status
    bd6c:	00bfff84 	movi	r2,-2
    bd70:	1884703a 	and	r2,r3,r2
    bd74:	1001703a 	wrctl	status,r2
    bd78:	21400117 	ldw	r5,4(r4)
    bd7c:	20800017 	ldw	r2,0(r4)
    bd80:	11400115 	stw	r5,4(r2)
    bd84:	21400117 	ldw	r5,4(r4)
    bd88:	28800015 	stw	r2,0(r5)
    bd8c:	21000115 	stw	r4,4(r4)
    bd90:	21000015 	stw	r4,0(r4)
    bd94:	1801703a 	wrctl	status,r3
    bd98:	f800283a 	ret

0000bd9c <alt_tick>:
    bd9c:	d0a2af17 	ldw	r2,-30020(gp)
    bda0:	defffa04 	addi	sp,sp,-24
    bda4:	dc000015 	stw	r16,0(sp)
    bda8:	d4200c17 	ldw	r16,-32720(gp)
    bdac:	10800044 	addi	r2,r2,1
    bdb0:	dc800215 	stw	r18,8(sp)
    bdb4:	dfc00515 	stw	ra,20(sp)
    bdb8:	dd000415 	stw	r20,16(sp)
    bdbc:	dcc00315 	stw	r19,12(sp)
    bdc0:	dc400115 	stw	r17,4(sp)
    bdc4:	d4a00c04 	addi	r18,gp,-32720
    bdc8:	d0a2af15 	stw	r2,-30020(gp)
    bdcc:	84801126 	beq	r16,r18,be14 <alt_tick+0x78>
    bdd0:	04c00044 	movi	r19,1
    bdd4:	053fff84 	movi	r20,-2
    bdd8:	00000606 	br	bdf4 <alt_tick+0x58>
    bddc:	80000405 	stb	zero,16(r16)
    bde0:	d0e2af17 	ldw	r3,-30020(gp)
    bde4:	80800217 	ldw	r2,8(r16)
    bde8:	1880122e 	bgeu	r3,r2,be34 <alt_tick+0x98>
    bdec:	8821883a 	mov	r16,r17
    bdf0:	8c800826 	beq	r17,r18,be14 <alt_tick+0x78>
    bdf4:	80800403 	ldbu	r2,16(r16)
    bdf8:	84400017 	ldw	r17,0(r16)
    bdfc:	103ff826 	beq	r2,zero,bde0 <alt_tick+0x44>
    be00:	d0a2af17 	ldw	r2,-30020(gp)
    be04:	103ff526 	beq	r2,zero,bddc <alt_tick+0x40>
    be08:	d0a2af17 	ldw	r2,-30020(gp)
    be0c:	8821883a 	mov	r16,r17
    be10:	8cbff81e 	bne	r17,r18,bdf4 <alt_tick+0x58>
    be14:	dfc00517 	ldw	ra,20(sp)
    be18:	dd000417 	ldw	r20,16(sp)
    be1c:	dcc00317 	ldw	r19,12(sp)
    be20:	dc800217 	ldw	r18,8(sp)
    be24:	dc400117 	ldw	r17,4(sp)
    be28:	dc000017 	ldw	r16,0(sp)
    be2c:	dec00604 	addi	sp,sp,24
    be30:	f800283a 	ret
    be34:	80800317 	ldw	r2,12(r16)
    be38:	81000517 	ldw	r4,20(r16)
    be3c:	103ee83a 	callr	r2
    be40:	10000726 	beq	r2,zero,be60 <alt_tick+0xc4>
    be44:	80c00217 	ldw	r3,8(r16)
    be48:	d122af17 	ldw	r4,-30020(gp)
    be4c:	10c5883a 	add	r2,r2,r3
    be50:	80800215 	stw	r2,8(r16)
    be54:	113fe52e 	bgeu	r2,r4,bdec <alt_tick+0x50>
    be58:	84c00405 	stb	r19,16(r16)
    be5c:	003fe306 	br	bdec <alt_tick+0x50>
    be60:	0005303a 	rdctl	r2,status
    be64:	1506703a 	and	r3,r2,r20
    be68:	1801703a 	wrctl	status,r3
    be6c:	81000117 	ldw	r4,4(r16)
    be70:	80c00017 	ldw	r3,0(r16)
    be74:	19000115 	stw	r4,4(r3)
    be78:	81000117 	ldw	r4,4(r16)
    be7c:	20c00015 	stw	r3,0(r4)
    be80:	84000115 	stw	r16,4(r16)
    be84:	84000015 	stw	r16,0(r16)
    be88:	1001703a 	wrctl	status,r2
    be8c:	003fd706 	br	bdec <alt_tick+0x50>

0000be90 <altera_nios2_gen2_irq_init>:
    be90:	000170fa 	wrctl	ienable,zero
    be94:	f800283a 	ret

0000be98 <alt_find_dev>:
    be98:	defffb04 	addi	sp,sp,-20
    be9c:	dc000015 	stw	r16,0(sp)
    bea0:	2c000017 	ldw	r16,0(r5)
    bea4:	dc400115 	stw	r17,4(sp)
    bea8:	2823883a 	mov	r17,r5
    beac:	dcc00315 	stw	r19,12(sp)
    beb0:	dfc00415 	stw	ra,16(sp)
    beb4:	dc800215 	stw	r18,8(sp)
    beb8:	2027883a 	mov	r19,r4
    bebc:	000c18c0 	call	c18c <strlen>
    bec0:	8c000b26 	beq	r17,r16,bef0 <alt_find_dev+0x58>
    bec4:	14800044 	addi	r18,r2,1
    bec8:	00000206 	br	bed4 <alt_find_dev+0x3c>
    becc:	84000017 	ldw	r16,0(r16)
    bed0:	8c000726 	beq	r17,r16,bef0 <alt_find_dev+0x58>
    bed4:	81000217 	ldw	r4,8(r16)
    bed8:	900d883a 	mov	r6,r18
    bedc:	980b883a 	mov	r5,r19
    bee0:	000c1100 	call	c110 <memcmp>
    bee4:	103ff91e 	bne	r2,zero,becc <alt_find_dev+0x34>
    bee8:	8005883a 	mov	r2,r16
    beec:	00000106 	br	bef4 <alt_find_dev+0x5c>
    bef0:	0005883a 	mov	r2,zero
    bef4:	dfc00417 	ldw	ra,16(sp)
    bef8:	dcc00317 	ldw	r19,12(sp)
    befc:	dc800217 	ldw	r18,8(sp)
    bf00:	dc400117 	ldw	r17,4(sp)
    bf04:	dc000017 	ldw	r16,0(sp)
    bf08:	dec00504 	addi	sp,sp,20
    bf0c:	f800283a 	ret

0000bf10 <alt_find_file>:
    bf10:	defffa04 	addi	sp,sp,-24
    bf14:	dd000415 	stw	r20,16(sp)
    bf18:	05000074 	movhi	r20,1
    bf1c:	a533fc04 	addi	r20,r20,-12304
    bf20:	dc000015 	stw	r16,0(sp)
    bf24:	a4000017 	ldw	r16,0(r20)
    bf28:	dfc00515 	stw	ra,20(sp)
    bf2c:	dcc00315 	stw	r19,12(sp)
    bf30:	dc800215 	stw	r18,8(sp)
    bf34:	dc400115 	stw	r17,4(sp)
    bf38:	85001626 	beq	r16,r20,bf94 <alt_find_file+0x84>
    bf3c:	2025883a 	mov	r18,r4
    bf40:	04c00bc4 	movi	r19,47
    bf44:	00000806 	br	bf68 <alt_find_file+0x58>
    bf48:	9185883a 	add	r2,r18,r6
    bf4c:	10800007 	ldb	r2,0(r2)
    bf50:	14c00126 	beq	r2,r19,bf58 <alt_find_file+0x48>
    bf54:	1000021e 	bne	r2,zero,bf60 <alt_find_file+0x50>
    bf58:	000c1100 	call	c110 <memcmp>
    bf5c:	10001626 	beq	r2,zero,bfb8 <alt_find_file+0xa8>
    bf60:	84000017 	ldw	r16,0(r16)
    bf64:	85000b26 	beq	r16,r20,bf94 <alt_find_file+0x84>
    bf68:	84400217 	ldw	r17,8(r16)
    bf6c:	8809883a 	mov	r4,r17
    bf70:	000c18c0 	call	c18c <strlen>
    bf74:	100d883a 	mov	r6,r2
    bf78:	8885883a 	add	r2,r17,r2
    bf7c:	10bfffc7 	ldb	r2,-1(r2)
    bf80:	900b883a 	mov	r5,r18
    bf84:	8809883a 	mov	r4,r17
    bf88:	14ffef1e 	bne	r2,r19,bf48 <alt_find_file+0x38>
    bf8c:	31bfffc4 	addi	r6,r6,-1
    bf90:	003fed06 	br	bf48 <alt_find_file+0x38>
    bf94:	0005883a 	mov	r2,zero
    bf98:	dfc00517 	ldw	ra,20(sp)
    bf9c:	dd000417 	ldw	r20,16(sp)
    bfa0:	dcc00317 	ldw	r19,12(sp)
    bfa4:	dc800217 	ldw	r18,8(sp)
    bfa8:	dc400117 	ldw	r17,4(sp)
    bfac:	dc000017 	ldw	r16,0(sp)
    bfb0:	dec00604 	addi	sp,sp,24
    bfb4:	f800283a 	ret
    bfb8:	8005883a 	mov	r2,r16
    bfbc:	003ff606 	br	bf98 <alt_find_file+0x88>

0000bfc0 <alt_get_fd>:
    bfc0:	defffc04 	addi	sp,sp,-16
    bfc4:	dc400115 	stw	r17,4(sp)
    bfc8:	04400074 	movhi	r17,1
    bfcc:	8c737504 	addi	r17,r17,-12844
    bfd0:	dc000015 	stw	r16,0(sp)
    bfd4:	dfc00315 	stw	ra,12(sp)
    bfd8:	dc800215 	stw	r18,8(sp)
    bfdc:	0021883a 	mov	r16,zero
    bfe0:	8805883a 	mov	r2,r17
    bfe4:	01400804 	movi	r5,32
    bfe8:	00000206 	br	bff4 <alt_get_fd+0x34>
    bfec:	84000044 	addi	r16,r16,1
    bff0:	81401526 	beq	r16,r5,c048 <alt_get_fd+0x88>
    bff4:	10c00017 	ldw	r3,0(r2)
    bff8:	10800304 	addi	r2,r2,12
    bffc:	183ffb1e 	bne	r3,zero,bfec <alt_get_fd+0x2c>
    c000:	2025883a 	mov	r18,r4
    c004:	01400304 	movi	r5,12
    c008:	8009883a 	mov	r4,r16
    c00c:	000ad8c0 	call	ad8c <__mulsi3>
    c010:	00c00074 	movhi	r3,1
    c014:	8885883a 	add	r2,r17,r2
    c018:	18f3f904 	addi	r3,r3,-12316
    c01c:	14800015 	stw	r18,0(r2)
    c020:	18800017 	ldw	r2,0(r3)
    c024:	1400010e 	bge	r2,r16,c02c <alt_get_fd+0x6c>
    c028:	1c000015 	stw	r16,0(r3)
    c02c:	8005883a 	mov	r2,r16
    c030:	dfc00317 	ldw	ra,12(sp)
    c034:	dc800217 	ldw	r18,8(sp)
    c038:	dc400117 	ldw	r17,4(sp)
    c03c:	dc000017 	ldw	r16,0(sp)
    c040:	dec00404 	addi	sp,sp,16
    c044:	f800283a 	ret
    c048:	043ffa04 	movi	r16,-24
    c04c:	003ff706 	br	c02c <alt_get_fd+0x6c>

0000c050 <alt_exception_cause_generated_bad_addr>:
    c050:	213ffe84 	addi	r4,r4,-6
    c054:	008003c4 	movi	r2,15
    c058:	11001636 	bltu	r2,r4,c0b4 <alt_exception_cause_generated_bad_addr+0x64>
    c05c:	200890ba 	slli	r4,r4,2
    c060:	00800074 	movhi	r2,1
    c064:	10b01d04 	addi	r2,r2,-16268
    c068:	2089883a 	add	r4,r4,r2
    c06c:	20800017 	ldw	r2,0(r4)
    c070:	1000683a 	jmp	r2
    c074:	0000c0bc 	xorhi	zero,zero,770
    c078:	0000c0bc 	xorhi	zero,zero,770
    c07c:	0000c0b4 	movhi	zero,770
    c080:	0000c0b4 	movhi	zero,770
    c084:	0000c0b4 	movhi	zero,770
    c088:	0000c0bc 	xorhi	zero,zero,770
    c08c:	0000c0b4 	movhi	zero,770
    c090:	0000c0b4 	movhi	zero,770
    c094:	0000c0bc 	xorhi	zero,zero,770
    c098:	0000c0bc 	xorhi	zero,zero,770
    c09c:	0000c0b4 	movhi	zero,770
    c0a0:	0000c0bc 	xorhi	zero,zero,770
    c0a4:	0000c0b4 	movhi	zero,770
    c0a8:	0000c0b4 	movhi	zero,770
    c0ac:	0000c0b4 	movhi	zero,770
    c0b0:	0000c0bc 	xorhi	zero,zero,770
    c0b4:	0005883a 	mov	r2,zero
    c0b8:	f800283a 	ret
    c0bc:	00800044 	movi	r2,1
    c0c0:	f800283a 	ret

0000c0c4 <atexit>:
    c0c4:	200b883a 	mov	r5,r4
    c0c8:	000f883a 	mov	r7,zero
    c0cc:	000d883a 	mov	r6,zero
    c0d0:	0009883a 	mov	r4,zero
    c0d4:	000c2241 	jmpi	c224 <__register_exitproc>

0000c0d8 <exit>:
    c0d8:	defffe04 	addi	sp,sp,-8
    c0dc:	000b883a 	mov	r5,zero
    c0e0:	dc000015 	stw	r16,0(sp)
    c0e4:	dfc00115 	stw	ra,4(sp)
    c0e8:	2021883a 	mov	r16,r4
    c0ec:	000c33c0 	call	c33c <__call_exitprocs>
    c0f0:	00800074 	movhi	r2,1
    c0f4:	10b3f504 	addi	r2,r2,-12332
    c0f8:	11000017 	ldw	r4,0(r2)
    c0fc:	20800f17 	ldw	r2,60(r4)
    c100:	10000126 	beq	r2,zero,c108 <exit+0x30>
    c104:	103ee83a 	callr	r2
    c108:	8009883a 	mov	r4,r16
    c10c:	000c4bc0 	call	c4bc <_exit>

0000c110 <memcmp>:
    c110:	01c000c4 	movi	r7,3
    c114:	3980192e 	bgeu	r7,r6,c17c <memcmp+0x6c>
    c118:	2144b03a 	or	r2,r4,r5
    c11c:	11c4703a 	and	r2,r2,r7
    c120:	10000f26 	beq	r2,zero,c160 <memcmp+0x50>
    c124:	20800003 	ldbu	r2,0(r4)
    c128:	28c00003 	ldbu	r3,0(r5)
    c12c:	10c0151e 	bne	r2,r3,c184 <memcmp+0x74>
    c130:	31bfff84 	addi	r6,r6,-2
    c134:	01ffffc4 	movi	r7,-1
    c138:	00000406 	br	c14c <memcmp+0x3c>
    c13c:	20800003 	ldbu	r2,0(r4)
    c140:	28c00003 	ldbu	r3,0(r5)
    c144:	31bfffc4 	addi	r6,r6,-1
    c148:	10c00e1e 	bne	r2,r3,c184 <memcmp+0x74>
    c14c:	21000044 	addi	r4,r4,1
    c150:	29400044 	addi	r5,r5,1
    c154:	31fff91e 	bne	r6,r7,c13c <memcmp+0x2c>
    c158:	0005883a 	mov	r2,zero
    c15c:	f800283a 	ret
    c160:	20c00017 	ldw	r3,0(r4)
    c164:	28800017 	ldw	r2,0(r5)
    c168:	18bfee1e 	bne	r3,r2,c124 <memcmp+0x14>
    c16c:	31bfff04 	addi	r6,r6,-4
    c170:	21000104 	addi	r4,r4,4
    c174:	29400104 	addi	r5,r5,4
    c178:	39bff936 	bltu	r7,r6,c160 <memcmp+0x50>
    c17c:	303fe91e 	bne	r6,zero,c124 <memcmp+0x14>
    c180:	003ff506 	br	c158 <memcmp+0x48>
    c184:	10c5c83a 	sub	r2,r2,r3
    c188:	f800283a 	ret

0000c18c <strlen>:
    c18c:	208000cc 	andi	r2,r4,3
    c190:	10002026 	beq	r2,zero,c214 <strlen+0x88>
    c194:	20800007 	ldb	r2,0(r4)
    c198:	10002026 	beq	r2,zero,c21c <strlen+0x90>
    c19c:	2005883a 	mov	r2,r4
    c1a0:	00000206 	br	c1ac <strlen+0x20>
    c1a4:	10c00007 	ldb	r3,0(r2)
    c1a8:	18001826 	beq	r3,zero,c20c <strlen+0x80>
    c1ac:	10800044 	addi	r2,r2,1
    c1b0:	10c000cc 	andi	r3,r2,3
    c1b4:	183ffb1e 	bne	r3,zero,c1a4 <strlen+0x18>
    c1b8:	10c00017 	ldw	r3,0(r2)
    c1bc:	01ffbff4 	movhi	r7,65279
    c1c0:	39ffbfc4 	addi	r7,r7,-257
    c1c4:	00ca303a 	nor	r5,zero,r3
    c1c8:	01a02074 	movhi	r6,32897
    c1cc:	19c7883a 	add	r3,r3,r7
    c1d0:	31a02004 	addi	r6,r6,-32640
    c1d4:	1946703a 	and	r3,r3,r5
    c1d8:	1986703a 	and	r3,r3,r6
    c1dc:	1800091e 	bne	r3,zero,c204 <strlen+0x78>
    c1e0:	10800104 	addi	r2,r2,4
    c1e4:	10c00017 	ldw	r3,0(r2)
    c1e8:	19cb883a 	add	r5,r3,r7
    c1ec:	00c6303a 	nor	r3,zero,r3
    c1f0:	28c6703a 	and	r3,r5,r3
    c1f4:	1986703a 	and	r3,r3,r6
    c1f8:	183ff926 	beq	r3,zero,c1e0 <strlen+0x54>
    c1fc:	00000106 	br	c204 <strlen+0x78>
    c200:	10800044 	addi	r2,r2,1
    c204:	10c00007 	ldb	r3,0(r2)
    c208:	183ffd1e 	bne	r3,zero,c200 <strlen+0x74>
    c20c:	1105c83a 	sub	r2,r2,r4
    c210:	f800283a 	ret
    c214:	2005883a 	mov	r2,r4
    c218:	003fe706 	br	c1b8 <strlen+0x2c>
    c21c:	0005883a 	mov	r2,zero
    c220:	f800283a 	ret

0000c224 <__register_exitproc>:
    c224:	defffa04 	addi	sp,sp,-24
    c228:	dc000315 	stw	r16,12(sp)
    c22c:	04000074 	movhi	r16,1
    c230:	8433f504 	addi	r16,r16,-12332
    c234:	80c00017 	ldw	r3,0(r16)
    c238:	dc400415 	stw	r17,16(sp)
    c23c:	dfc00515 	stw	ra,20(sp)
    c240:	18805217 	ldw	r2,328(r3)
    c244:	2023883a 	mov	r17,r4
    c248:	10003726 	beq	r2,zero,c328 <__register_exitproc+0x104>
    c24c:	10c00117 	ldw	r3,4(r2)
    c250:	010007c4 	movi	r4,31
    c254:	20c00e16 	blt	r4,r3,c290 <__register_exitproc+0x6c>
    c258:	1a000044 	addi	r8,r3,1
    c25c:	8800221e 	bne	r17,zero,c2e8 <__register_exitproc+0xc4>
    c260:	18c00084 	addi	r3,r3,2
    c264:	18c7883a 	add	r3,r3,r3
    c268:	18c7883a 	add	r3,r3,r3
    c26c:	12000115 	stw	r8,4(r2)
    c270:	10c7883a 	add	r3,r2,r3
    c274:	19400015 	stw	r5,0(r3)
    c278:	0005883a 	mov	r2,zero
    c27c:	dfc00517 	ldw	ra,20(sp)
    c280:	dc400417 	ldw	r17,16(sp)
    c284:	dc000317 	ldw	r16,12(sp)
    c288:	dec00604 	addi	sp,sp,24
    c28c:	f800283a 	ret
    c290:	00800034 	movhi	r2,0
    c294:	10800004 	addi	r2,r2,0
    c298:	10002626 	beq	r2,zero,c334 <__register_exitproc+0x110>
    c29c:	01006404 	movi	r4,400
    c2a0:	d9400015 	stw	r5,0(sp)
    c2a4:	d9800115 	stw	r6,4(sp)
    c2a8:	d9c00215 	stw	r7,8(sp)
    c2ac:	00000000 	call	0 <__alt_mem_onchip_memory2_0-0x8000>
    c2b0:	d9400017 	ldw	r5,0(sp)
    c2b4:	d9800117 	ldw	r6,4(sp)
    c2b8:	d9c00217 	ldw	r7,8(sp)
    c2bc:	10001d26 	beq	r2,zero,c334 <__register_exitproc+0x110>
    c2c0:	81000017 	ldw	r4,0(r16)
    c2c4:	10000115 	stw	zero,4(r2)
    c2c8:	02000044 	movi	r8,1
    c2cc:	22405217 	ldw	r9,328(r4)
    c2d0:	0007883a 	mov	r3,zero
    c2d4:	12400015 	stw	r9,0(r2)
    c2d8:	20805215 	stw	r2,328(r4)
    c2dc:	10006215 	stw	zero,392(r2)
    c2e0:	10006315 	stw	zero,396(r2)
    c2e4:	883fde26 	beq	r17,zero,c260 <__register_exitproc+0x3c>
    c2e8:	18c9883a 	add	r4,r3,r3
    c2ec:	2109883a 	add	r4,r4,r4
    c2f0:	1109883a 	add	r4,r2,r4
    c2f4:	21802215 	stw	r6,136(r4)
    c2f8:	01800044 	movi	r6,1
    c2fc:	12406217 	ldw	r9,392(r2)
    c300:	30cc983a 	sll	r6,r6,r3
    c304:	4992b03a 	or	r9,r9,r6
    c308:	12406215 	stw	r9,392(r2)
    c30c:	21c04215 	stw	r7,264(r4)
    c310:	01000084 	movi	r4,2
    c314:	893fd21e 	bne	r17,r4,c260 <__register_exitproc+0x3c>
    c318:	11006317 	ldw	r4,396(r2)
    c31c:	218cb03a 	or	r6,r4,r6
    c320:	11806315 	stw	r6,396(r2)
    c324:	003fce06 	br	c260 <__register_exitproc+0x3c>
    c328:	18805304 	addi	r2,r3,332
    c32c:	18805215 	stw	r2,328(r3)
    c330:	003fc606 	br	c24c <__register_exitproc+0x28>
    c334:	00bfffc4 	movi	r2,-1
    c338:	003fd006 	br	c27c <__register_exitproc+0x58>

0000c33c <__call_exitprocs>:
    c33c:	defff504 	addi	sp,sp,-44
    c340:	df000915 	stw	fp,36(sp)
    c344:	dd400615 	stw	r21,24(sp)
    c348:	dc800315 	stw	r18,12(sp)
    c34c:	dfc00a15 	stw	ra,40(sp)
    c350:	ddc00815 	stw	r23,32(sp)
    c354:	dd800715 	stw	r22,28(sp)
    c358:	dd000515 	stw	r20,20(sp)
    c35c:	dcc00415 	stw	r19,16(sp)
    c360:	dc400215 	stw	r17,8(sp)
    c364:	dc000115 	stw	r16,4(sp)
    c368:	d9000015 	stw	r4,0(sp)
    c36c:	2839883a 	mov	fp,r5
    c370:	04800044 	movi	r18,1
    c374:	057fffc4 	movi	r21,-1
    c378:	00800074 	movhi	r2,1
    c37c:	10b3f504 	addi	r2,r2,-12332
    c380:	12000017 	ldw	r8,0(r2)
    c384:	45005217 	ldw	r20,328(r8)
    c388:	44c05204 	addi	r19,r8,328
    c38c:	a0001c26 	beq	r20,zero,c400 <__call_exitprocs+0xc4>
    c390:	a0800117 	ldw	r2,4(r20)
    c394:	15ffffc4 	addi	r23,r2,-1
    c398:	b8000d16 	blt	r23,zero,c3d0 <__call_exitprocs+0x94>
    c39c:	14000044 	addi	r16,r2,1
    c3a0:	8421883a 	add	r16,r16,r16
    c3a4:	8421883a 	add	r16,r16,r16
    c3a8:	84402004 	addi	r17,r16,128
    c3ac:	a463883a 	add	r17,r20,r17
    c3b0:	a421883a 	add	r16,r20,r16
    c3b4:	e0001e26 	beq	fp,zero,c430 <__call_exitprocs+0xf4>
    c3b8:	80804017 	ldw	r2,256(r16)
    c3bc:	e0801c26 	beq	fp,r2,c430 <__call_exitprocs+0xf4>
    c3c0:	bdffffc4 	addi	r23,r23,-1
    c3c4:	843fff04 	addi	r16,r16,-4
    c3c8:	8c7fff04 	addi	r17,r17,-4
    c3cc:	bd7ff91e 	bne	r23,r21,c3b4 <__call_exitprocs+0x78>
    c3d0:	00800034 	movhi	r2,0
    c3d4:	10800004 	addi	r2,r2,0
    c3d8:	10000926 	beq	r2,zero,c400 <__call_exitprocs+0xc4>
    c3dc:	a0800117 	ldw	r2,4(r20)
    c3e0:	1000301e 	bne	r2,zero,c4a4 <__call_exitprocs+0x168>
    c3e4:	a0800017 	ldw	r2,0(r20)
    c3e8:	10003226 	beq	r2,zero,c4b4 <__call_exitprocs+0x178>
    c3ec:	a009883a 	mov	r4,r20
    c3f0:	98800015 	stw	r2,0(r19)
    c3f4:	00000000 	call	0 <__alt_mem_onchip_memory2_0-0x8000>
    c3f8:	9d000017 	ldw	r20,0(r19)
    c3fc:	a03fe41e 	bne	r20,zero,c390 <__call_exitprocs+0x54>
    c400:	dfc00a17 	ldw	ra,40(sp)
    c404:	df000917 	ldw	fp,36(sp)
    c408:	ddc00817 	ldw	r23,32(sp)
    c40c:	dd800717 	ldw	r22,28(sp)
    c410:	dd400617 	ldw	r21,24(sp)
    c414:	dd000517 	ldw	r20,20(sp)
    c418:	dcc00417 	ldw	r19,16(sp)
    c41c:	dc800317 	ldw	r18,12(sp)
    c420:	dc400217 	ldw	r17,8(sp)
    c424:	dc000117 	ldw	r16,4(sp)
    c428:	dec00b04 	addi	sp,sp,44
    c42c:	f800283a 	ret
    c430:	a0800117 	ldw	r2,4(r20)
    c434:	80c00017 	ldw	r3,0(r16)
    c438:	10bfffc4 	addi	r2,r2,-1
    c43c:	15c01426 	beq	r2,r23,c490 <__call_exitprocs+0x154>
    c440:	80000015 	stw	zero,0(r16)
    c444:	183fde26 	beq	r3,zero,c3c0 <__call_exitprocs+0x84>
    c448:	95c8983a 	sll	r4,r18,r23
    c44c:	a0806217 	ldw	r2,392(r20)
    c450:	a5800117 	ldw	r22,4(r20)
    c454:	2084703a 	and	r2,r4,r2
    c458:	10000b26 	beq	r2,zero,c488 <__call_exitprocs+0x14c>
    c45c:	a0806317 	ldw	r2,396(r20)
    c460:	2088703a 	and	r4,r4,r2
    c464:	20000c1e 	bne	r4,zero,c498 <__call_exitprocs+0x15c>
    c468:	89400017 	ldw	r5,0(r17)
    c46c:	d9000017 	ldw	r4,0(sp)
    c470:	183ee83a 	callr	r3
    c474:	a0800117 	ldw	r2,4(r20)
    c478:	15bfbf1e 	bne	r2,r22,c378 <__call_exitprocs+0x3c>
    c47c:	98800017 	ldw	r2,0(r19)
    c480:	153fcf26 	beq	r2,r20,c3c0 <__call_exitprocs+0x84>
    c484:	003fbc06 	br	c378 <__call_exitprocs+0x3c>
    c488:	183ee83a 	callr	r3
    c48c:	003ff906 	br	c474 <__call_exitprocs+0x138>
    c490:	a5c00115 	stw	r23,4(r20)
    c494:	003feb06 	br	c444 <__call_exitprocs+0x108>
    c498:	89000017 	ldw	r4,0(r17)
    c49c:	183ee83a 	callr	r3
    c4a0:	003ff406 	br	c474 <__call_exitprocs+0x138>
    c4a4:	a0800017 	ldw	r2,0(r20)
    c4a8:	a027883a 	mov	r19,r20
    c4ac:	1029883a 	mov	r20,r2
    c4b0:	003fb606 	br	c38c <__call_exitprocs+0x50>
    c4b4:	0005883a 	mov	r2,zero
    c4b8:	003ffb06 	br	c4a8 <__call_exitprocs+0x16c>

0000c4bc <_exit>:
    c4bc:	20000226 	beq	r4,zero,c4c8 <_exit+0xc>
    c4c0:	002af070 	cmpltui	zero,zero,43969
    c4c4:	003fff06 	br	c4c4 <_exit+0x8>
    c4c8:	002af0b0 	cmpltui	zero,zero,43970
    c4cc:	003ffd06 	br	c4c4 <_exit+0x8>
