
main.elf:     file format elf32-littlenios2
main.elf
architecture: nios2:r1, flags 0x00000112:
EXEC_P, HAS_SYMS, D_PAGED
start address 0x00008184

Program Header:
    LOAD off    0x00001000 vaddr 0x00008000 paddr 0x00008000 align 2**12
         filesz 0x00000020 memsz 0x00000020 flags r-x
    LOAD off    0x00001020 vaddr 0x00008020 paddr 0x00008020 align 2**12
         filesz 0x000044fc memsz 0x000044fc flags r-x
    LOAD off    0x0000551c vaddr 0x0000c51c paddr 0x0000cf84 align 2**12
         filesz 0x00000a68 memsz 0x00000a68 flags rw-
    LOAD off    0x000069ec vaddr 0x0000d9ec paddr 0x0000d9ec align 2**12
         filesz 0x00000000 memsz 0x00000160 flags rw-

Sections:
Idx Name          Size      VMA       LMA       File off  Algn
  0 .entry        00000020  00008000  00008000  00001000  2**5
                  CONTENTS, ALLOC, LOAD, READONLY, CODE
  1 .exceptions   00000164  00008020  00008020  00001020  2**2
                  CONTENTS, ALLOC, LOAD, READONLY, CODE
  2 .text         0000429c  00008184  00008184  00001184  2**2
                  CONTENTS, ALLOC, LOAD, READONLY, CODE
  3 .rodata       000000fc  0000c420  0000c420  00005420  2**2
                  CONTENTS, ALLOC, LOAD, READONLY, DATA
  4 .rwdata       00000a68  0000c51c  0000cf84  0000551c  2**2
                  CONTENTS, ALLOC, LOAD, DATA, SMALL_DATA
  5 .bss          00000160  0000d9ec  0000d9ec  000069ec  2**2
                  ALLOC, SMALL_DATA
  6 .onchip_memory2_0 00000000  0000db4c  0000db4c  00005f84  2**0
                  CONTENTS
  7 .comment      00000023  00000000  00000000  00005f84  2**0
                  CONTENTS, READONLY
  8 .debug_aranges 000009e0  00000000  00000000  00005fa8  2**3
                  CONTENTS, READONLY, DEBUGGING
  9 .debug_info   00015f9d  00000000  00000000  00006988  2**0
                  CONTENTS, READONLY, DEBUGGING
 10 .debug_abbrev 00006070  00000000  00000000  0001c925  2**0
                  CONTENTS, READONLY, DEBUGGING
 11 .debug_line   00006506  00000000  00000000  00022995  2**0
                  CONTENTS, READONLY, DEBUGGING
 12 .debug_frame  000013f0  00000000  00000000  00028e9c  2**2
                  CONTENTS, READONLY, DEBUGGING
 13 .debug_str    0000276a  00000000  00000000  0002a28c  2**0
                  CONTENTS, READONLY, DEBUGGING
 14 .debug_loc    00004aa4  00000000  00000000  0002c9f6  2**0
                  CONTENTS, READONLY, DEBUGGING
 15 .debug_alt_sim_info 00000010  00000000  00000000  0003149c  2**2
                  CONTENTS, READONLY, DEBUGGING
 16 .debug_ranges 00000708  00000000  00000000  000314b0  2**3
                  CONTENTS, READONLY, DEBUGGING
 17 .thread_model 00000003  00000000  00000000  00034034  2**0
                  CONTENTS, READONLY
 18 .cpu          0000000c  00000000  00000000  00034037  2**0
                  CONTENTS, READONLY
 19 .qsys         00000001  00000000  00000000  00034043  2**0
                  CONTENTS, READONLY
 20 .simulation_enabled 00000001  00000000  00000000  00034044  2**0
                  CONTENTS, READONLY
 21 .stderr_dev   0000000b  00000000  00000000  00034045  2**0
                  CONTENTS, READONLY
 22 .stdin_dev    00000006  00000000  00000000  00034050  2**0
                  CONTENTS, READONLY
 23 .stdout_dev   00000006  00000000  00000000  00034056  2**0
                  CONTENTS, READONLY
 24 .sopc_system_name 00000006  00000000  00000000  0003405c  2**0
                  CONTENTS, READONLY
 25 .sopcinfo     0005feae  00000000  00000000  00034062  2**0
                  CONTENTS, READONLY
SYMBOL TABLE:
00008000 l    d  .entry	00000000 .entry
00008020 l    d  .exceptions	00000000 .exceptions
00008184 l    d  .text	00000000 .text
0000c420 l    d  .rodata	00000000 .rodata
0000c51c l    d  .rwdata	00000000 .rwdata
0000d9ec l    d  .bss	00000000 .bss
0000db4c l    d  .onchip_memory2_0	00000000 .onchip_memory2_0
00000000 l    d  .comment	00000000 .comment
00000000 l    d  .debug_aranges	00000000 .debug_aranges
00000000 l    d  .debug_info	00000000 .debug_info
00000000 l    d  .debug_abbrev	00000000 .debug_abbrev
00000000 l    d  .debug_line	00000000 .debug_line
00000000 l    d  .debug_frame	00000000 .debug_frame
00000000 l    d  .debug_str	00000000 .debug_str
00000000 l    d  .debug_loc	00000000 .debug_loc
00000000 l    d  .debug_alt_sim_info	00000000 .debug_alt_sim_info
00000000 l    d  .debug_ranges	00000000 .debug_ranges
00000000 l    df *ABS*	00000000 hal_bsp//obj/HAL/src/crt0.o
000081bc l       .text	00000000 alt_after_alt_main
00000000 l    df *ABS*	00000000 alt_irq_handler.c
00000000 l    df *ABS*	00000000 alt_instruction_exception_entry.c
00000000 l    df *ABS*	00000000 main.c
00000000 l    df *ABS*	00000000 small_printing.c
000086dc l     F .text	00000054 int2str_reduce_n
0000cf48 l     O .rwdata	00000004 __digits
0000da18 l     O .bss	00000009 __int2str_buf
00008730 l     F .text	000000a4 int2str_map_n
000088f0 l     F .text	00000034 put_space
00008924 l     F .text	00000034 put_line
00000000 l    df *ABS*	00000000 lib2-divmod.c
00000000 l    df *ABS*	00000000 getc.c
00000000 l    df *ABS*	00000000 impure.c
0000c51c l     O .rwdata	00000424 impure_data
00000000 l    df *ABS*	00000000 rget.c
00000000 l    df *ABS*	00000000 findfp.c
00008f30 l     F .text	00000008 __fp_unlock
00008f44 l     F .text	0000019c __sinit.part.1
000090e0 l     F .text	00000008 __fp_lock
00000000 l    df *ABS*	00000000 fwalk.c
00000000 l    df *ABS*	00000000 mallocr.c
00000000 l    df *ABS*	00000000 memset.c
00000000 l    df *ABS*	00000000 refill.c
00009d9c l     F .text	0000001c lflush
00000000 l    df *ABS*	00000000 sbrkr.c
00000000 l    df *ABS*	00000000 stdio.c
00000000 l    df *ABS*	00000000 writer.c
00000000 l    df *ABS*	00000000 closer.c
00000000 l    df *ABS*	00000000 fclose.c
00000000 l    df *ABS*	00000000 fflush.c
00000000 l    df *ABS*	00000000 mallocr.c
00000000 l    df *ABS*	00000000 int_errno.c
00000000 l    df *ABS*	00000000 lseekr.c
00000000 l    df *ABS*	00000000 makebuf.c
00000000 l    df *ABS*	00000000 readr.c
00000000 l    df *ABS*	00000000 fstatr.c
00000000 l    df *ABS*	00000000 isattyr.c
00000000 l    df *ABS*	00000000 lib2-mul.c
00000000 l    df *ABS*	00000000 alt_close.c
00000000 l    df *ABS*	00000000 alt_dev.c
0000addc l     F .text	00000008 alt_dev_null_write
00000000 l    df *ABS*	00000000 alt_errno.c
00000000 l    df *ABS*	00000000 alt_fstat.c
00000000 l    df *ABS*	00000000 alt_isatty.c
00000000 l    df *ABS*	00000000 alt_load.c
00000000 l    df *ABS*	00000000 alt_lseek.c
00000000 l    df *ABS*	00000000 alt_main.c
00000000 l    df *ABS*	00000000 alt_malloc_lock.c
00000000 l    df *ABS*	00000000 alt_read.c
00000000 l    df *ABS*	00000000 alt_release_fd.c
00000000 l    df *ABS*	00000000 alt_sbrk.c
0000cf74 l     O .rwdata	00000004 heap_end
00000000 l    df *ABS*	00000000 alt_write.c
00000000 l    df *ABS*	00000000 alt_sys_init.c
0000cf1c l     O .rwdata	0000002c jtag_uart_0
0000cef0 l     O .rwdata	0000002c uart_0
00000000 l    df *ABS*	00000000 altera_avalon_jtag_uart_fd.c
00000000 l    df *ABS*	00000000 altera_avalon_jtag_uart_read.c
00000000 l    df *ABS*	00000000 altera_avalon_jtag_uart_write.c
00000000 l    df *ABS*	00000000 altera_avalon_timer_sc.c
0000b60c l     F .text	0000003c alt_avalon_timer_sc_irq
00000000 l    df *ABS*	00000000 altera_avalon_uart_fd.c
00000000 l    df *ABS*	00000000 altera_avalon_uart_read.c
00000000 l    df *ABS*	00000000 altera_avalon_uart_write.c
00000000 l    df *ABS*	00000000 alt_dcache_flush_all.c
00000000 l    df *ABS*	00000000 alt_dev_llist_insert.c
00000000 l    df *ABS*	00000000 alt_do_ctors.c
00000000 l    df *ABS*	00000000 alt_do_dtors.c
00000000 l    df *ABS*	00000000 alt_icache_flush_all.c
00000000 l    df *ABS*	00000000 alt_iic.c
00000000 l    df *ABS*	00000000 alt_iic_isr_register.c
00000000 l    df *ABS*	00000000 alt_io_redirect.c
0000ba18 l     F .text	0000008c alt_open_fd.constprop.0
00000000 l    df *ABS*	00000000 alt_irq_vars.c
00000000 l    df *ABS*	00000000 alt_open.c
00000000 l    df *ABS*	00000000 alt_tick.c
00000000 l    df *ABS*	00000000 altera_nios2_gen2_irq.c
00000000 l    df *ABS*	00000000 alt_find_dev.c
00000000 l    df *ABS*	00000000 alt_find_file.c
00000000 l    df *ABS*	00000000 alt_get_fd.c
00000000 l    df *ABS*	00000000 atexit.c
00000000 l    df *ABS*	00000000 exit.c
00000000 l    df *ABS*	00000000 memcmp.c
00000000 l    df *ABS*	00000000 strlen.c
00000000 l    df *ABS*	00000000 __atexit.c
00000000 l    df *ABS*	00000000 __call_atexit.c
00000000 l    df *ABS*	00000000 alt_exit.c
0000da14 g     O .bss	00000004 alt_instruction_exception_handler
0000ac88 g     F .text	00000054 _isatty_r
0000b14c g     F .text	00000064 alt_main
0000da4c g     O .bss	00000100 alt_irq
0000a9b0 g     F .text	00000060 _lseek_r
00008670 g     F .text	0000006c s_prints
0000cf84 g       *ABS*	00000000 __flash_rwdata_start
0000db4c g       *ABS*	00000000 __alt_heap_start
0000a0b8 g     F .text	0000005c __sseek
00009290 g     F .text	00000010 __sinit
000090e8 g     F .text	00000078 __sfmoreglue
0000b1b4 g     F .text	00000004 __malloc_unlock
00009278 g     F .text	00000018 _cleanup
00008b78 g     F .text	00000084 s_printlx
0000bde0 g     F .text	00000008 altera_nios2_gen2_irq_init
00008000 g     F .entry	0000000c __reset
00008020 g       *ABS*	00000000 __flash_exceptions_start
0000ac2c g     F .text	0000005c _fstat_r
0000d9f8 g     O .bss	00000004 errno
00008f1c g     F .text	00000014 __srget
0000a034 g     F .text	00000008 __seofread
0000da00 g     O .bss	00000004 alt_argv
00014f48 g       *ABS*	00000000 _gp
000088ac g     F .text	00000044 s_putx
0000cd48 g     O .rwdata	00000180 alt_fd_list
00008db0 g     F .text	00000070 _getc_r
00008e20 g     F .text	00000088 getc
0000bde8 g     F .text	00000078 alt_find_dev
00008f38 g     F .text	0000000c _cleanup_r
0000baa4 g     F .text	00000074 alt_io_redirect
0000c420 g       *ABS*	00000000 __DTOR_END__
0000bfa0 g     F .text	00000074 alt_exception_cause_generated_bad_addr
0000b564 g     F .text	00000074 altera_avalon_jtag_uart_read
00008000 g       *ABS*	00000000 __alt_mem_onchip_memory2_0
00008cf4 g     F .text	00000064 .hidden __udivsi3
0000aeb8 g     F .text	000000ac isatty
00008a64 g     F .text	0000008c s_printx
0000d9f4 g     O .bss	00000004 __malloc_top_pad
00008958 g     F .text	00000080 s_printd
00009f8c g     F .text	00000054 _sbrk_r
0000abcc g     F .text	00000060 _read_r
0000cf5c g     O .rwdata	00000004 alt_max_fd
0000a1d0 g     F .text	000000f0 _fclose_r
0000a54c g     F .text	00000030 fflush
0000d9f0 g     O .bss	00000004 __malloc_max_sbrked_mem
0000b078 g     F .text	000000d4 lseek
0000cf4c g     O .rwdata	00000004 _global_impure_ptr
0000db4c g       *ABS*	00000000 __bss_end
0000b9b0 g     F .text	00000068 alt_iic_isr_register
0000bcec g     F .text	000000f4 alt_tick
000092b0 g     F .text	00000018 __fp_lock_all
00008af0 g     F .text	00000088 s_printb
0000b998 g     F .text	00000018 alt_ic_irq_enabled
0000bcb8 g     F .text	00000034 alt_alarm_stop
0000da08 g     O .bss	00000004 alt_irq_active
000080fc g     F .exceptions	00000064 alt_irq_handler
0000cec8 g     O .rwdata	00000028 alt_dev_null
0000b7cc g     F .text	00000004 alt_dcache_flush_all
0000cf84 g       *ABS*	00000000 __ram_rwdata_end
0000cf60 g     O .rwdata	00000008 alt_dev_list
0000b398 g     F .text	00000134 write
0000c51c g       *ABS*	00000000 __ram_rodata_end
0000ade4 g     F .text	000000d4 fstat
00008d58 g     F .text	00000058 .hidden __umodsi3
000081c0 g     F .text	00000054 ntohl
0000db4c g       *ABS*	00000000 end
0000b740 g     F .text	0000008c altera_avalon_uart_write
00008160 g     F .exceptions	00000024 alt_instruction_exception_entry
0000c420 g       *ABS*	00000000 __CTOR_LIST__
00010000 g       *ABS*	00000000 __alt_stack_pointer
0000b648 g     F .text	00000050 alt_avalon_timer_sc_init
0000b6a8 g     F .text	00000010 altera_avalon_uart_write_fd
0000b5d8 g     F .text	00000034 altera_avalon_jtag_uart_write
000092a0 g     F .text	00000004 __sfp_lock_acquire
000087d4 g     F .text	00000094 __int2strn
0000a6a0 g     F .text	00000310 _free_r
0000c28c g     F .text	00000180 __call_exitprocs
00008ea8 g     F .text	00000074 __srget_r
0000cf54 g     O .rwdata	00000004 __malloc_sbrk_base
00008184 g     F .text	0000003c _start
0000da10 g     O .bss	00000004 _alt_tick_rate
0000da0c g     O .bss	00000004 _alt_nticks
0000b1b8 g     F .text	00000138 read
0000b4ec g     F .text	00000058 alt_sys_init
0000c174 g     F .text	00000118 __register_exitproc
0000acdc g     F .text	00000028 .hidden __mulsi3
0000c51c g       *ABS*	00000000 __ram_rwdata_start
0000c420 g       *ABS*	00000000 __ram_rodata_start
0000da24 g     O .bss	00000028 __malloc_current_mallinfo
000089d8 g     F .text	0000008c s_printl
0000b544 g     F .text	00000010 altera_avalon_jtag_uart_read_fd
0000bf10 g     F .text	00000090 alt_get_fd
0000a17c g     F .text	00000054 _close_r
0000c060 g     F .text	0000007c memcmp
0000db4c g       *ABS*	00000000 __alt_stack_base
00009160 g     F .text	00000118 __sfp
00008590 g     F .text	00000040 putf
0000c940 g     O .rwdata	00000408 __malloc_av_
000092ac g     F .text	00000004 __sinit_lock_release
00009fe0 g     F .text	00000054 __sread
0000be60 g     F .text	000000b0 alt_find_file
0000b7d0 g     F .text	00000078 alt_dev_llist_insert
00008868 g     F .text	00000044 s_putd
0000b1b0 g     F .text	00000004 __malloc_lock
0000b34c g     F .text	0000004c sbrk
0000a4f0 g     F .text	0000005c _fflush_r
0000d9ec g       *ABS*	00000000 __bss_start
00009c74 g     F .text	00000128 memset
00008214 g     F .text	00000044 cg_write
0000856c g     F .text	00000024 main
0000d9fc g     O .bss	00000004 alt_envp
0000d9ec g     O .bss	00000004 __malloc_max_total_mem
0000b554 g     F .text	00000010 altera_avalon_jtag_uart_write_fd
000085d0 g     F .text	000000a0 dump_hex
0000a114 g     F .text	00000008 __sclose
00010000 g       *ABS*	00000000 __alt_heap_limit
0000a2c0 g     F .text	00000014 fclose
00009468 g     F .text	0000080c _malloc_r
0000cf70 g     O .rwdata	00000004 alt_errno
000092e0 g     F .text	000000c4 _fwalk
00008bfc g     F .text	00000084 .hidden __divsi3
0000a57c g     F .text	00000124 _malloc_trim_r
0000c420 g       *ABS*	00000000 __CTOR_END__
0000c420 g       *ABS*	00000000 __flash_rodata_start
0000c420 g       *ABS*	00000000 __DTOR_LIST__
0000b4cc g     F .text	00000020 alt_irq_init
0000b2f0 g     F .text	0000005c alt_release_fd
0000c014 g     F .text	00000014 atexit
0000a11c g     F .text	00000060 _write_r
000082d8 g     F .text	00000294 handle_transaction
0000cf50 g     O .rwdata	00000004 _impure_ptr
0000da04 g     O .bss	00000004 alt_argc
0000a2d4 g     F .text	0000021c __sflush_r
0000b8ac g     F .text	00000064 _do_dtors
00009db8 g     F .text	000001d4 __srefill_r
00008020 g       .exceptions	00000000 alt_irq_entry
000092c8 g     F .text	00000018 __fp_unlock_all
0000cf68 g     O .rwdata	00000008 alt_fs_list
00008020 g       *ABS*	00000000 __ram_exceptions_start
0000b914 g     F .text	00000004 alt_ic_isr_register
0000cf84 g       *ABS*	00000000 _edata
0000b698 g     F .text	00000010 altera_avalon_uart_read_fd
0000db4c g       *ABS*	00000000 _end
00008184 g       *ABS*	00000000 __ram_exceptions_end
0000b958 g     F .text	00000040 alt_ic_irq_disable
0000a03c g     F .text	0000007c __swrite
0000cf58 g     O .rwdata	00000004 __malloc_trim_threshold
0000c028 g     F .text	00000038 exit
000093a4 g     F .text	000000c4 _fwalk_reent
00008c80 g     F .text	00000074 .hidden __modsi3
00010000 g       *ABS*	00000000 __alt_data_end
00008020 g     F .exceptions	00000000 alt_exception
000092a4 g     F .text	00000004 __sfp_lock_release
00008258 g     F .text	00000080 cg_read
0000c40c g     F .text	00000014 _exit
0000aa10 g     F .text	000001bc __smakebuf_r
0000c0dc g     F .text	00000098 strlen
0000bb18 g     F .text	000001a0 open
0000b910 g     F .text	00000004 alt_icache_flush_all
0000cf78 g     O .rwdata	00000004 alt_priority_mask
0000b918 g     F .text	00000040 alt_ic_irq_enable
0000b6b8 g     F .text	00000088 altera_avalon_uart_read
0000cf7c g     O .rwdata	00000008 alt_alarm_list
0000b848 g     F .text	00000064 _do_ctors
0000ad04 g     F .text	000000d8 close
0000af64 g     F .text	00000114 alt_load
000092a8 g     F .text	00000004 __sinit_lock_acquire



Disassembly of section .entry:

00008000 <__reset>:
    8000:	00400034 	movhi	at,0
    8004:	08606114 	ori	at,at,33156
    8008:	0800683a 	jmp	at
	...

Disassembly of section .exceptions:

00008020 <alt_exception>:
    8020:	deffed04 	addi	sp,sp,-76
    8024:	dfc00015 	stw	ra,0(sp)
    8028:	d8400215 	stw	at,8(sp)
    802c:	d8800315 	stw	r2,12(sp)
    8030:	d8c00415 	stw	r3,16(sp)
    8034:	d9000515 	stw	r4,20(sp)
    8038:	d9400615 	stw	r5,24(sp)
    803c:	d9800715 	stw	r6,28(sp)
    8040:	d9c00815 	stw	r7,32(sp)
    8044:	000b307a 	rdctl	r5,estatus
    8048:	da000915 	stw	r8,36(sp)
    804c:	da400a15 	stw	r9,40(sp)
    8050:	da800b15 	stw	r10,44(sp)
    8054:	dac00c15 	stw	r11,48(sp)
    8058:	db000d15 	stw	r12,52(sp)
    805c:	db400e15 	stw	r13,56(sp)
    8060:	db800f15 	stw	r14,60(sp)
    8064:	dbc01015 	stw	r15,64(sp)
    8068:	d9401115 	stw	r5,68(sp)
    806c:	ebffff04 	addi	r15,ea,-4
    8070:	dbc01215 	stw	r15,72(sp)
    8074:	0009313a 	rdctl	r4,ipending
    8078:	2880004c 	andi	r2,r5,1
    807c:	10000326 	beq	r2,zero,808c <alt_exception+0x6c>
    8080:	20000226 	beq	r4,zero,808c <alt_exception+0x6c>
    8084:	00080fc0 	call	80fc <alt_irq_handler>
    8088:	00000706 	br	80a8 <alt_exception+0x88>
    808c:	df401215 	stw	ea,72(sp)
    8090:	e8bfff17 	ldw	r2,-4(ea)
    8094:	e93fff04 	addi	r4,ea,-4
    8098:	00081600 	call	8160 <alt_instruction_exception_entry>
    809c:	1000021e 	bne	r2,zero,80a8 <alt_exception+0x88>
    80a0:	ebffff04 	addi	r15,ea,-4
    80a4:	dbc01215 	stw	r15,72(sp)
    80a8:	d9401117 	ldw	r5,68(sp)
    80ac:	df401217 	ldw	ea,72(sp)
    80b0:	dfc00017 	ldw	ra,0(sp)
    80b4:	2801707a 	wrctl	estatus,r5
    80b8:	d8400217 	ldw	at,8(sp)
    80bc:	d8800317 	ldw	r2,12(sp)
    80c0:	d8c00417 	ldw	r3,16(sp)
    80c4:	d9000517 	ldw	r4,20(sp)
    80c8:	d9400617 	ldw	r5,24(sp)
    80cc:	d9800717 	ldw	r6,28(sp)
    80d0:	d9c00817 	ldw	r7,32(sp)
    80d4:	da000917 	ldw	r8,36(sp)
    80d8:	da400a17 	ldw	r9,40(sp)
    80dc:	da800b17 	ldw	r10,44(sp)
    80e0:	dac00c17 	ldw	r11,48(sp)
    80e4:	db000d17 	ldw	r12,52(sp)
    80e8:	db400e17 	ldw	r13,56(sp)
    80ec:	db800f17 	ldw	r14,60(sp)
    80f0:	dbc01017 	ldw	r15,64(sp)
    80f4:	dec01304 	addi	sp,sp,76
    80f8:	ef80083a 	eret

000080fc <alt_irq_handler>:
    80fc:	defffe04 	addi	sp,sp,-8
    8100:	dfc00115 	stw	ra,4(sp)
    8104:	dc000015 	stw	r16,0(sp)
    8108:	000b313a 	rdctl	r5,ipending
    810c:	04000074 	movhi	r16,1
    8110:	84369304 	addi	r16,r16,-9652
    8114:	2880004c 	andi	r2,r5,1
    8118:	0007883a 	mov	r3,zero
    811c:	1000051e 	bne	r2,zero,8134 <alt_irq_handler+0x38>
    8120:	00800044 	movi	r2,1
    8124:	1085883a 	add	r2,r2,r2
    8128:	2888703a 	and	r4,r5,r2
    812c:	18c00044 	addi	r3,r3,1
    8130:	203ffc26 	beq	r4,zero,8124 <alt_irq_handler+0x28>
    8134:	180690fa 	slli	r3,r3,3
    8138:	80c7883a 	add	r3,r16,r3
    813c:	18800017 	ldw	r2,0(r3)
    8140:	19000117 	ldw	r4,4(r3)
    8144:	103ee83a 	callr	r2
    8148:	000b313a 	rdctl	r5,ipending
    814c:	283ff11e 	bne	r5,zero,8114 <alt_irq_handler+0x18>
    8150:	dfc00117 	ldw	ra,4(sp)
    8154:	dc000017 	ldw	r16,0(sp)
    8158:	dec00204 	addi	sp,sp,8
    815c:	f800283a 	ret

00008160 <alt_instruction_exception_entry>:
    8160:	d0a2b317 	ldw	r2,-30004(gp)
    8164:	10000426 	beq	r2,zero,8178 <alt_instruction_exception_entry+0x18>
    8168:	200b883a 	mov	r5,r4
    816c:	000d883a 	mov	r6,zero
    8170:	013fffc4 	movi	r4,-1
    8174:	1000683a 	jmp	r2
    8178:	003da03a 	break	0
    817c:	0005883a 	mov	r2,zero
    8180:	f800283a 	ret

Disassembly of section .text:

00008184 <_start>:
    8184:	06c00074 	movhi	sp,1
    8188:	dec00014 	ori	sp,sp,0
    818c:	06800074 	movhi	gp,1
    8190:	d693d214 	ori	gp,gp,20296
    8194:	00800034 	movhi	r2,0
    8198:	10b67b14 	ori	r2,r2,55788
    819c:	00c00034 	movhi	r3,0
    81a0:	18f6d314 	ori	r3,r3,56140
    81a4:	10c00326 	beq	r2,r3,81b4 <_start+0x30>
    81a8:	10000015 	stw	zero,0(r2)
    81ac:	10800104 	addi	r2,r2,4
    81b0:	10fffd36 	bltu	r2,r3,81a8 <_start+0x24>
    81b4:	000af640 	call	af64 <alt_load>
    81b8:	000b14c0 	call	b14c <alt_main>

000081bc <alt_after_alt_main>:
    81bc:	003fff06 	br	81bc <alt_after_alt_main>

000081c0 <ntohl>:
    81c0:	defffe04 	addi	sp,sp,-8
    81c4:	df000115 	stw	fp,4(sp)
    81c8:	df000104 	addi	fp,sp,4
    81cc:	e13fff15 	stw	r4,-4(fp)
    81d0:	e0bfff17 	ldw	r2,-4(fp)
    81d4:	1006963a 	slli	r3,r2,24
    81d8:	e0bfff17 	ldw	r2,-4(fp)
    81dc:	10bfc00c 	andi	r2,r2,65280
    81e0:	1004923a 	slli	r2,r2,8
    81e4:	1886b03a 	or	r3,r3,r2
    81e8:	e0bfff17 	ldw	r2,-4(fp)
    81ec:	10803fec 	andhi	r2,r2,255
    81f0:	1004d23a 	srli	r2,r2,8
    81f4:	1886b03a 	or	r3,r3,r2
    81f8:	e0bfff17 	ldw	r2,-4(fp)
    81fc:	1004d63a 	srli	r2,r2,24
    8200:	1884b03a 	or	r2,r3,r2
    8204:	e037883a 	mov	sp,fp
    8208:	df000017 	ldw	fp,0(sp)
    820c:	dec00104 	addi	sp,sp,4
    8210:	f800283a 	ret

00008214 <cg_write>:
    8214:	defffc04 	addi	sp,sp,-16
    8218:	dfc00315 	stw	ra,12(sp)
    821c:	df000215 	stw	fp,8(sp)
    8220:	df000204 	addi	fp,sp,8
    8224:	e13ffe15 	stw	r4,-8(fp)
    8228:	e17fff15 	stw	r5,-4(fp)
    822c:	e0bfff17 	ldw	r2,-4(fp)
    8230:	100d883a 	mov	r6,r2
    8234:	e17ffe17 	ldw	r5,-8(fp)
    8238:	01000044 	movi	r4,1
    823c:	000b3980 	call	b398 <write>
    8240:	0001883a 	nop
    8244:	e037883a 	mov	sp,fp
    8248:	dfc00117 	ldw	ra,4(sp)
    824c:	df000017 	ldw	fp,0(sp)
    8250:	dec00204 	addi	sp,sp,8
    8254:	f800283a 	ret

00008258 <cg_read>:
    8258:	defffa04 	addi	sp,sp,-24
    825c:	dfc00515 	stw	ra,20(sp)
    8260:	df000415 	stw	fp,16(sp)
    8264:	dc000315 	stw	r16,12(sp)
    8268:	df000404 	addi	fp,sp,16
    826c:	e13ffd15 	stw	r4,-12(fp)
    8270:	e17ffe15 	stw	r5,-8(fp)
    8274:	e03ffc15 	stw	zero,-16(fp)
    8278:	00000d06 	br	82b0 <cg_read+0x58>
    827c:	e0bffc17 	ldw	r2,-16(fp)
    8280:	e0fffd17 	ldw	r3,-12(fp)
    8284:	18a1883a 	add	r16,r3,r2
    8288:	00800074 	movhi	r2,1
    828c:	10b3d404 	addi	r2,r2,-12464
    8290:	10800017 	ldw	r2,0(r2)
    8294:	10800117 	ldw	r2,4(r2)
    8298:	1009883a 	mov	r4,r2
    829c:	0008e200 	call	8e20 <getc>
    82a0:	80800005 	stb	r2,0(r16)
    82a4:	e0bffc17 	ldw	r2,-16(fp)
    82a8:	10800044 	addi	r2,r2,1
    82ac:	e0bffc15 	stw	r2,-16(fp)
    82b0:	e0fffc17 	ldw	r3,-16(fp)
    82b4:	e0bffe17 	ldw	r2,-8(fp)
    82b8:	18bff016 	blt	r3,r2,827c <cg_read+0x24>
    82bc:	0001883a 	nop
    82c0:	e6ffff04 	addi	sp,fp,-4
    82c4:	dfc00217 	ldw	ra,8(sp)
    82c8:	df000117 	ldw	fp,4(sp)
    82cc:	dc000017 	ldw	r16,0(sp)
    82d0:	dec00304 	addi	sp,sp,12
    82d4:	f800283a 	ret

000082d8 <handle_transaction>:
    82d8:	defff704 	addi	sp,sp,-36
    82dc:	dfc00815 	stw	ra,32(sp)
    82e0:	df000715 	stw	fp,28(sp)
    82e4:	df000704 	addi	fp,sp,28
    82e8:	e03ffe15 	stw	zero,-8(fp)
    82ec:	e0bffb04 	addi	r2,fp,-20
    82f0:	01400104 	movi	r5,4
    82f4:	1009883a 	mov	r4,r2
    82f8:	00082580 	call	8258 <cg_read>
    82fc:	e0bffb17 	ldw	r2,-20(fp)
    8300:	1009883a 	mov	r4,r2
    8304:	00081c00 	call	81c0 <ntohl>
    8308:	e0bffb15 	stw	r2,-20(fp)
    830c:	e0bffb04 	addi	r2,fp,-20
    8310:	10800104 	addi	r2,r2,4
    8314:	01400104 	movi	r5,4
    8318:	1009883a 	mov	r4,r2
    831c:	00082580 	call	8258 <cg_read>
    8320:	e0bffc17 	ldw	r2,-16(fp)
    8324:	1009883a 	mov	r4,r2
    8328:	00081c00 	call	81c0 <ntohl>
    832c:	e0bffc15 	stw	r2,-16(fp)
    8330:	e0bffb04 	addi	r2,fp,-20
    8334:	10800204 	addi	r2,r2,8
    8338:	01400104 	movi	r5,4
    833c:	1009883a 	mov	r4,r2
    8340:	00082580 	call	8258 <cg_read>
    8344:	e0bffd17 	ldw	r2,-12(fp)
    8348:	1009883a 	mov	r4,r2
    834c:	00081c00 	call	81c0 <ntohl>
    8350:	e0bffd15 	stw	r2,-12(fp)
    8354:	e0bffb17 	ldw	r2,-20(fp)
    8358:	100d883a 	mov	r6,r2
    835c:	01400044 	movi	r5,1
    8360:	01000074 	movhi	r4,1
    8364:	21310804 	addi	r4,r4,-15328
    8368:	0008a640 	call	8a64 <s_printx>
    836c:	e0bffc17 	ldw	r2,-16(fp)
    8370:	100d883a 	mov	r6,r2
    8374:	01400044 	movi	r5,1
    8378:	01000074 	movhi	r4,1
    837c:	21310b04 	addi	r4,r4,-15316
    8380:	0008a640 	call	8a64 <s_printx>
    8384:	e0bffd17 	ldw	r2,-12(fp)
    8388:	100d883a 	mov	r6,r2
    838c:	01400044 	movi	r5,1
    8390:	01000074 	movhi	r4,1
    8394:	21310e04 	addi	r4,r4,-15304
    8398:	0008a640 	call	8a64 <s_printx>
    839c:	01000074 	movhi	r4,1
    83a0:	21311104 	addi	r4,r4,-15292
    83a4:	00086700 	call	8670 <s_prints>
    83a8:	e0bffc17 	ldw	r2,-16(fp)
    83ac:	e0bff915 	stw	r2,-28(fp)
    83b0:	e0bffd17 	ldw	r2,-12(fp)
    83b4:	e0bffa15 	stw	r2,-24(fp)
    83b8:	01801204 	movi	r6,72
    83bc:	01400044 	movi	r5,1
    83c0:	01000074 	movhi	r4,1
    83c4:	21311304 	addi	r4,r4,-15284
    83c8:	00089580 	call	8958 <s_printd>
    83cc:	e0bffb17 	ldw	r2,-20(fp)
    83d0:	10c000a0 	cmpeqi	r3,r2,2
    83d4:	1800271e 	bne	r3,zero,8474 <handle_transaction+0x19c>
    83d8:	10c000e0 	cmpeqi	r3,r2,3
    83dc:	1800031e 	bne	r3,zero,83ec <handle_transaction+0x114>
    83e0:	10800060 	cmpeqi	r2,r2,1
    83e4:	10000e1e 	bne	r2,zero,8420 <handle_transaction+0x148>
    83e8:	00004806 	br	850c <handle_transaction+0x234>
    83ec:	01000074 	movhi	r4,1
    83f0:	21311504 	addi	r4,r4,-15276
    83f4:	00086700 	call	8670 <s_prints>
    83f8:	0007883a 	mov	r3,zero
    83fc:	00800044 	movi	r2,1
    8400:	18800005 	stb	r2,0(r3)
    8404:	0005883a 	mov	r2,zero
    8408:	10000005 	stb	zero,0(r2)
    840c:	00800074 	movhi	r2,1
    8410:	10840004 	addi	r2,r2,4096
    8414:	00c00044 	movi	r3,1
    8418:	10c00015 	stw	r3,0(r2)
    841c:	00004006 	br	8520 <handle_transaction+0x248>
    8420:	e0fff917 	ldw	r3,-28(fp)
    8424:	00800074 	movhi	r2,1
    8428:	10840004 	addi	r2,r2,4096
    842c:	1885883a 	add	r2,r3,r2
    8430:	100f883a 	mov	r7,r2
    8434:	e1bffa17 	ldw	r6,-24(fp)
    8438:	01400084 	movi	r5,2
    843c:	01000074 	movhi	r4,1
    8440:	21311a04 	addi	r4,r4,-15256
    8444:	0008a640 	call	8a64 <s_printx>
    8448:	e0bff917 	ldw	r2,-28(fp)
    844c:	1085883a 	add	r2,r2,r2
    8450:	1085883a 	add	r2,r2,r2
    8454:	1007883a 	mov	r3,r2
    8458:	00800074 	movhi	r2,1
    845c:	10840004 	addi	r2,r2,4096
    8460:	1885883a 	add	r2,r3,r2
    8464:	1007883a 	mov	r3,r2
    8468:	e0bffa17 	ldw	r2,-24(fp)
    846c:	18800015 	stw	r2,0(r3)
    8470:	00002b06 	br	8520 <handle_transaction+0x248>
    8474:	e0fff917 	ldw	r3,-28(fp)
    8478:	00800074 	movhi	r2,1
    847c:	10840004 	addi	r2,r2,4096
    8480:	1885883a 	add	r2,r3,r2
    8484:	100d883a 	mov	r6,r2
    8488:	01400044 	movi	r5,1
    848c:	01000074 	movhi	r4,1
    8490:	21312004 	addi	r4,r4,-15232
    8494:	0008a640 	call	8a64 <s_printx>
    8498:	e0bff917 	ldw	r2,-28(fp)
    849c:	1085883a 	add	r2,r2,r2
    84a0:	1085883a 	add	r2,r2,r2
    84a4:	1007883a 	mov	r3,r2
    84a8:	00800074 	movhi	r2,1
    84ac:	10840004 	addi	r2,r2,4096
    84b0:	1885883a 	add	r2,r3,r2
    84b4:	10800017 	ldw	r2,0(r2)
    84b8:	e0bfff15 	stw	r2,-4(fp)
    84bc:	e0bfff17 	ldw	r2,-4(fp)
    84c0:	e1fff917 	ldw	r7,-28(fp)
    84c4:	100d883a 	mov	r6,r2
    84c8:	01400084 	movi	r5,2
    84cc:	01000074 	movhi	r4,1
    84d0:	21312704 	addi	r4,r4,-15204
    84d4:	0008a640 	call	8a64 <s_printx>
    84d8:	e0bfff17 	ldw	r2,-4(fp)
    84dc:	1009883a 	mov	r4,r2
    84e0:	00081c00 	call	81c0 <ntohl>
    84e4:	e0bfff15 	stw	r2,-4(fp)
    84e8:	e0bffe04 	addi	r2,fp,-8
    84ec:	01400104 	movi	r5,4
    84f0:	1009883a 	mov	r4,r2
    84f4:	00082140 	call	8214 <cg_write>
    84f8:	e0bfff04 	addi	r2,fp,-4
    84fc:	01400104 	movi	r5,4
    8500:	1009883a 	mov	r4,r2
    8504:	00082140 	call	8214 <cg_write>
    8508:	00001306 	br	8558 <handle_transaction+0x280>
    850c:	01000074 	movhi	r4,1
    8510:	21312c04 	addi	r4,r4,-15184
    8514:	00086700 	call	8670 <s_prints>
    8518:	00800044 	movi	r2,1
    851c:	e0bffe15 	stw	r2,-8(fp)
    8520:	01801a04 	movi	r6,104
    8524:	01400044 	movi	r5,1
    8528:	01000074 	movhi	r4,1
    852c:	21311304 	addi	r4,r4,-15284
    8530:	00089580 	call	8958 <s_printd>
    8534:	e0bffe17 	ldw	r2,-8(fp)
    8538:	1009883a 	mov	r4,r2
    853c:	00081c00 	call	81c0 <ntohl>
    8540:	e0bffe15 	stw	r2,-8(fp)
    8544:	e0bffe04 	addi	r2,fp,-8
    8548:	01400104 	movi	r5,4
    854c:	1009883a 	mov	r4,r2
    8550:	00082140 	call	8214 <cg_write>
    8554:	0001883a 	nop
    8558:	e037883a 	mov	sp,fp
    855c:	dfc00117 	ldw	ra,4(sp)
    8560:	df000017 	ldw	fp,0(sp)
    8564:	dec00204 	addi	sp,sp,8
    8568:	f800283a 	ret

0000856c <main>:
    856c:	defffe04 	addi	sp,sp,-8
    8570:	dfc00115 	stw	ra,4(sp)
    8574:	df000015 	stw	fp,0(sp)
    8578:	d839883a 	mov	fp,sp
    857c:	01000074 	movhi	r4,1
    8580:	21313104 	addi	r4,r4,-15164
    8584:	00086700 	call	8670 <s_prints>
    8588:	00082d80 	call	82d8 <handle_transaction>
    858c:	003ffe06 	br	8588 <main+0x1c>

00008590 <putf>:
    8590:	defffd04 	addi	sp,sp,-12
    8594:	dfc00215 	stw	ra,8(sp)
    8598:	df000115 	stw	fp,4(sp)
    859c:	df000104 	addi	fp,sp,4
    85a0:	2005883a 	mov	r2,r4
    85a4:	e0bfff05 	stb	r2,-4(fp)
    85a8:	01800044 	movi	r6,1
    85ac:	e17fff04 	addi	r5,fp,-4
    85b0:	01000084 	movi	r4,2
    85b4:	000b3980 	call	b398 <write>
    85b8:	0001883a 	nop
    85bc:	e037883a 	mov	sp,fp
    85c0:	dfc00117 	ldw	ra,4(sp)
    85c4:	df000017 	ldw	fp,0(sp)
    85c8:	dec00204 	addi	sp,sp,8
    85cc:	f800283a 	ret

000085d0 <dump_hex>:
    85d0:	defffb04 	addi	sp,sp,-20
    85d4:	dfc00415 	stw	ra,16(sp)
    85d8:	df000315 	stw	fp,12(sp)
    85dc:	df000304 	addi	fp,sp,12
    85e0:	e13ffe15 	stw	r4,-8(fp)
    85e4:	2805883a 	mov	r2,r5
    85e8:	e0bfff05 	stb	r2,-4(fp)
    85ec:	e03ffd05 	stb	zero,-12(fp)
    85f0:	00001306 	br	8640 <dump_hex+0x70>
    85f4:	e0bffd03 	ldbu	r2,-12(fp)
    85f8:	e0fffe17 	ldw	r3,-8(fp)
    85fc:	1885883a 	add	r2,r3,r2
    8600:	10800003 	ldbu	r2,0(r2)
    8604:	10803fcc 	andi	r2,r2,255
    8608:	10800428 	cmpgeui	r2,r2,16
    860c:	1000021e 	bne	r2,zero,8618 <dump_hex+0x48>
    8610:	01000c04 	movi	r4,48
    8614:	00085900 	call	8590 <putf>
    8618:	e0bffd03 	ldbu	r2,-12(fp)
    861c:	e0fffe17 	ldw	r3,-8(fp)
    8620:	1885883a 	add	r2,r3,r2
    8624:	10800003 	ldbu	r2,0(r2)
    8628:	10803fcc 	andi	r2,r2,255
    862c:	1009883a 	mov	r4,r2
    8630:	00088ac0 	call	88ac <s_putx>
    8634:	e0bffd03 	ldbu	r2,-12(fp)
    8638:	10800044 	addi	r2,r2,1
    863c:	e0bffd05 	stb	r2,-12(fp)
    8640:	e0fffd03 	ldbu	r3,-12(fp)
    8644:	e0bfff03 	ldbu	r2,-4(fp)
    8648:	18bfea36 	bltu	r3,r2,85f4 <dump_hex+0x24>
    864c:	01000074 	movhi	r4,1
    8650:	21313404 	addi	r4,r4,-15152
    8654:	00086700 	call	8670 <s_prints>
    8658:	0001883a 	nop
    865c:	e037883a 	mov	sp,fp
    8660:	dfc00117 	ldw	ra,4(sp)
    8664:	df000017 	ldw	fp,0(sp)
    8668:	dec00204 	addi	sp,sp,8
    866c:	f800283a 	ret

00008670 <s_prints>:
    8670:	defffd04 	addi	sp,sp,-12
    8674:	dfc00215 	stw	ra,8(sp)
    8678:	df000115 	stw	fp,4(sp)
    867c:	df000104 	addi	fp,sp,4
    8680:	e13fff15 	stw	r4,-4(fp)
    8684:	00000906 	br	86ac <s_prints+0x3c>
    8688:	e0bfff17 	ldw	r2,-4(fp)
    868c:	10c00044 	addi	r3,r2,1
    8690:	e0ffff15 	stw	r3,-4(fp)
    8694:	10800003 	ldbu	r2,0(r2)
    8698:	10803fcc 	andi	r2,r2,255
    869c:	1080201c 	xori	r2,r2,128
    86a0:	10bfe004 	addi	r2,r2,-128
    86a4:	1009883a 	mov	r4,r2
    86a8:	00085900 	call	8590 <putf>
    86ac:	e0bfff17 	ldw	r2,-4(fp)
    86b0:	10800003 	ldbu	r2,0(r2)
    86b4:	10803fcc 	andi	r2,r2,255
    86b8:	1080201c 	xori	r2,r2,128
    86bc:	10bfe004 	addi	r2,r2,-128
    86c0:	103ff11e 	bne	r2,zero,8688 <s_prints+0x18>
    86c4:	0001883a 	nop
    86c8:	e037883a 	mov	sp,fp
    86cc:	dfc00117 	ldw	ra,4(sp)
    86d0:	df000017 	ldw	fp,0(sp)
    86d4:	dec00204 	addi	sp,sp,8
    86d8:	f800283a 	ret

000086dc <int2str_reduce_n>:
    86dc:	defffb04 	addi	sp,sp,-20
    86e0:	dfc00415 	stw	ra,16(sp)
    86e4:	df000315 	stw	fp,12(sp)
    86e8:	df000304 	addi	fp,sp,12
    86ec:	e13ffd15 	stw	r4,-12(fp)
    86f0:	e17ffe15 	stw	r5,-8(fp)
    86f4:	3005883a 	mov	r2,r6
    86f8:	e0bfff05 	stb	r2,-4(fp)
    86fc:	e0bfff03 	ldbu	r2,-4(fp)
    8700:	100b883a 	mov	r5,r2
    8704:	e13ffe17 	ldw	r4,-8(fp)
    8708:	0008cf40 	call	8cf4 <__udivsi3>
    870c:	e0bffe15 	stw	r2,-8(fp)
    8710:	e0bffe17 	ldw	r2,-8(fp)
    8714:	103ff91e 	bne	r2,zero,86fc <int2str_reduce_n+0x20>
    8718:	0001883a 	nop
    871c:	e037883a 	mov	sp,fp
    8720:	dfc00117 	ldw	ra,4(sp)
    8724:	df000017 	ldw	fp,0(sp)
    8728:	dec00204 	addi	sp,sp,8
    872c:	f800283a 	ret

00008730 <int2str_map_n>:
    8730:	defff904 	addi	sp,sp,-28
    8734:	dfc00615 	stw	ra,24(sp)
    8738:	df000515 	stw	fp,20(sp)
    873c:	dc400415 	stw	r17,16(sp)
    8740:	dc000315 	stw	r16,12(sp)
    8744:	df000504 	addi	fp,sp,20
    8748:	e13ffb15 	stw	r4,-20(fp)
    874c:	e17ffc15 	stw	r5,-16(fp)
    8750:	3005883a 	mov	r2,r6
    8754:	e0bffd05 	stb	r2,-12(fp)
    8758:	e0bffb17 	ldw	r2,-20(fp)
    875c:	10800017 	ldw	r2,0(r2)
    8760:	10ffffc4 	addi	r3,r2,-1
    8764:	e0bffb17 	ldw	r2,-20(fp)
    8768:	10c00015 	stw	r3,0(r2)
    876c:	e0bffb17 	ldw	r2,-20(fp)
    8770:	14000017 	ldw	r16,0(r2)
    8774:	d4600017 	ldw	r17,-32768(gp)
    8778:	e0fffd03 	ldbu	r3,-12(fp)
    877c:	e0bffc17 	ldw	r2,-16(fp)
    8780:	180b883a 	mov	r5,r3
    8784:	1009883a 	mov	r4,r2
    8788:	0008d580 	call	8d58 <__umodsi3>
    878c:	8885883a 	add	r2,r17,r2
    8790:	10800003 	ldbu	r2,0(r2)
    8794:	80800005 	stb	r2,0(r16)
    8798:	e0bffd03 	ldbu	r2,-12(fp)
    879c:	100b883a 	mov	r5,r2
    87a0:	e13ffc17 	ldw	r4,-16(fp)
    87a4:	0008cf40 	call	8cf4 <__udivsi3>
    87a8:	e0bffc15 	stw	r2,-16(fp)
    87ac:	e0bffc17 	ldw	r2,-16(fp)
    87b0:	103fe91e 	bne	r2,zero,8758 <int2str_map_n+0x28>
    87b4:	0001883a 	nop
    87b8:	e6fffe04 	addi	sp,fp,-8
    87bc:	dfc00317 	ldw	ra,12(sp)
    87c0:	df000217 	ldw	fp,8(sp)
    87c4:	dc400117 	ldw	r17,4(sp)
    87c8:	dc000017 	ldw	r16,0(sp)
    87cc:	dec00404 	addi	sp,sp,16
    87d0:	f800283a 	ret

000087d4 <__int2strn>:
    87d4:	defffb04 	addi	sp,sp,-20
    87d8:	dfc00415 	stw	ra,16(sp)
    87dc:	df000315 	stw	fp,12(sp)
    87e0:	df000304 	addi	fp,sp,12
    87e4:	e13ffe15 	stw	r4,-8(fp)
    87e8:	2805883a 	mov	r2,r5
    87ec:	e0bfff05 	stb	r2,-4(fp)
    87f0:	00800074 	movhi	r2,1
    87f4:	10b68604 	addi	r2,r2,-9704
    87f8:	e0bffd15 	stw	r2,-12(fp)
    87fc:	e0bffe17 	ldw	r2,-8(fp)
    8800:	1000050e 	bge	r2,zero,8818 <__int2strn+0x44>
    8804:	e0bffd17 	ldw	r2,-12(fp)
    8808:	10c00044 	addi	r3,r2,1
    880c:	e0fffd15 	stw	r3,-12(fp)
    8810:	00c00b44 	movi	r3,45
    8814:	10c00005 	stb	r3,0(r2)
    8818:	e0bffe17 	ldw	r2,-8(fp)
    881c:	e0ffff03 	ldbu	r3,-4(fp)
    8820:	180d883a 	mov	r6,r3
    8824:	100b883a 	mov	r5,r2
    8828:	e13ffd04 	addi	r4,fp,-12
    882c:	00086dc0 	call	86dc <int2str_reduce_n>
    8830:	e0bffd17 	ldw	r2,-12(fp)
    8834:	10000005 	stb	zero,0(r2)
    8838:	e0bffe17 	ldw	r2,-8(fp)
    883c:	e0ffff03 	ldbu	r3,-4(fp)
    8840:	180d883a 	mov	r6,r3
    8844:	100b883a 	mov	r5,r2
    8848:	e13ffd04 	addi	r4,fp,-12
    884c:	00087300 	call	8730 <int2str_map_n>
    8850:	e0bffd17 	ldw	r2,-12(fp)
    8854:	e037883a 	mov	sp,fp
    8858:	dfc00117 	ldw	ra,4(sp)
    885c:	df000017 	ldw	fp,0(sp)
    8860:	dec00204 	addi	sp,sp,8
    8864:	f800283a 	ret

00008868 <s_putd>:
    8868:	defffd04 	addi	sp,sp,-12
    886c:	dfc00215 	stw	ra,8(sp)
    8870:	df000115 	stw	fp,4(sp)
    8874:	df000104 	addi	fp,sp,4
    8878:	e13fff15 	stw	r4,-4(fp)
    887c:	e0bfff17 	ldw	r2,-4(fp)
    8880:	01400284 	movi	r5,10
    8884:	1009883a 	mov	r4,r2
    8888:	00087d40 	call	87d4 <__int2strn>
    888c:	1009883a 	mov	r4,r2
    8890:	00086700 	call	8670 <s_prints>
    8894:	0001883a 	nop
    8898:	e037883a 	mov	sp,fp
    889c:	dfc00117 	ldw	ra,4(sp)
    88a0:	df000017 	ldw	fp,0(sp)
    88a4:	dec00204 	addi	sp,sp,8
    88a8:	f800283a 	ret

000088ac <s_putx>:
    88ac:	defffd04 	addi	sp,sp,-12
    88b0:	dfc00215 	stw	ra,8(sp)
    88b4:	df000115 	stw	fp,4(sp)
    88b8:	df000104 	addi	fp,sp,4
    88bc:	e13fff15 	stw	r4,-4(fp)
    88c0:	e0bfff17 	ldw	r2,-4(fp)
    88c4:	01400404 	movi	r5,16
    88c8:	1009883a 	mov	r4,r2
    88cc:	00087d40 	call	87d4 <__int2strn>
    88d0:	1009883a 	mov	r4,r2
    88d4:	00086700 	call	8670 <s_prints>
    88d8:	0001883a 	nop
    88dc:	e037883a 	mov	sp,fp
    88e0:	dfc00117 	ldw	ra,4(sp)
    88e4:	df000017 	ldw	fp,0(sp)
    88e8:	dec00204 	addi	sp,sp,8
    88ec:	f800283a 	ret

000088f0 <put_space>:
    88f0:	defffe04 	addi	sp,sp,-8
    88f4:	dfc00115 	stw	ra,4(sp)
    88f8:	df000015 	stw	fp,0(sp)
    88fc:	d839883a 	mov	fp,sp
    8900:	01000074 	movhi	r4,1
    8904:	21313a04 	addi	r4,r4,-15128
    8908:	00086700 	call	8670 <s_prints>
    890c:	0001883a 	nop
    8910:	e037883a 	mov	sp,fp
    8914:	dfc00117 	ldw	ra,4(sp)
    8918:	df000017 	ldw	fp,0(sp)
    891c:	dec00204 	addi	sp,sp,8
    8920:	f800283a 	ret

00008924 <put_line>:
    8924:	defffe04 	addi	sp,sp,-8
    8928:	dfc00115 	stw	ra,4(sp)
    892c:	df000015 	stw	fp,0(sp)
    8930:	d839883a 	mov	fp,sp
    8934:	01000074 	movhi	r4,1
    8938:	21313404 	addi	r4,r4,-15152
    893c:	00086700 	call	8670 <s_prints>
    8940:	0001883a 	nop
    8944:	e037883a 	mov	sp,fp
    8948:	dfc00117 	ldw	ra,4(sp)
    894c:	df000017 	ldw	fp,0(sp)
    8950:	dec00204 	addi	sp,sp,8
    8954:	f800283a 	ret

00008958 <s_printd>:
    8958:	defff904 	addi	sp,sp,-28
    895c:	dfc00415 	stw	ra,16(sp)
    8960:	df000315 	stw	fp,12(sp)
    8964:	df000304 	addi	fp,sp,12
    8968:	e13ffe15 	stw	r4,-8(fp)
    896c:	2805883a 	mov	r2,r5
    8970:	e1800215 	stw	r6,8(fp)
    8974:	e1c00315 	stw	r7,12(fp)
    8978:	e0bfff05 	stb	r2,-4(fp)
    897c:	e13ffe17 	ldw	r4,-8(fp)
    8980:	00086700 	call	8670 <s_prints>
    8984:	e0800204 	addi	r2,fp,8
    8988:	e0bffd15 	stw	r2,-12(fp)
    898c:	00000606 	br	89a8 <s_printd+0x50>
    8990:	e0bffd17 	ldw	r2,-12(fp)
    8994:	10c00104 	addi	r3,r2,4
    8998:	e0fffd15 	stw	r3,-12(fp)
    899c:	10800017 	ldw	r2,0(r2)
    89a0:	1009883a 	mov	r4,r2
    89a4:	00088680 	call	8868 <s_putd>
    89a8:	e0bfff03 	ldbu	r2,-4(fp)
    89ac:	10ffffc4 	addi	r3,r2,-1
    89b0:	e0ffff05 	stb	r3,-4(fp)
    89b4:	10803fcc 	andi	r2,r2,255
    89b8:	103ff51e 	bne	r2,zero,8990 <s_printd+0x38>
    89bc:	00089240 	call	8924 <put_line>
    89c0:	0001883a 	nop
    89c4:	e037883a 	mov	sp,fp
    89c8:	dfc00117 	ldw	ra,4(sp)
    89cc:	df000017 	ldw	fp,0(sp)
    89d0:	dec00404 	addi	sp,sp,16
    89d4:	f800283a 	ret

000089d8 <s_printl>:
    89d8:	defff904 	addi	sp,sp,-28
    89dc:	dfc00415 	stw	ra,16(sp)
    89e0:	df000315 	stw	fp,12(sp)
    89e4:	df000304 	addi	fp,sp,12
    89e8:	e13ffe15 	stw	r4,-8(fp)
    89ec:	2805883a 	mov	r2,r5
    89f0:	e1800215 	stw	r6,8(fp)
    89f4:	e1c00315 	stw	r7,12(fp)
    89f8:	e0bfff05 	stb	r2,-4(fp)
    89fc:	e13ffe17 	ldw	r4,-8(fp)
    8a00:	00086700 	call	8670 <s_prints>
    8a04:	e0800204 	addi	r2,fp,8
    8a08:	e0bffd15 	stw	r2,-12(fp)
    8a0c:	00000906 	br	8a34 <s_printl+0x5c>
    8a10:	e0bffd17 	ldw	r2,-12(fp)
    8a14:	10c00104 	addi	r3,r2,4
    8a18:	e0fffd15 	stw	r3,-12(fp)
    8a1c:	10800017 	ldw	r2,0(r2)
    8a20:	1009883a 	mov	r4,r2
    8a24:	00088680 	call	8868 <s_putd>
    8a28:	01000074 	movhi	r4,1
    8a2c:	21313a04 	addi	r4,r4,-15128
    8a30:	00086700 	call	8670 <s_prints>
    8a34:	e0bfff03 	ldbu	r2,-4(fp)
    8a38:	10ffffc4 	addi	r3,r2,-1
    8a3c:	e0ffff05 	stb	r3,-4(fp)
    8a40:	10803fcc 	andi	r2,r2,255
    8a44:	103ff21e 	bne	r2,zero,8a10 <s_printl+0x38>
    8a48:	00089240 	call	8924 <put_line>
    8a4c:	0001883a 	nop
    8a50:	e037883a 	mov	sp,fp
    8a54:	dfc00117 	ldw	ra,4(sp)
    8a58:	df000017 	ldw	fp,0(sp)
    8a5c:	dec00404 	addi	sp,sp,16
    8a60:	f800283a 	ret

00008a64 <s_printx>:
    8a64:	defff904 	addi	sp,sp,-28
    8a68:	dfc00415 	stw	ra,16(sp)
    8a6c:	df000315 	stw	fp,12(sp)
    8a70:	df000304 	addi	fp,sp,12
    8a74:	e13ffe15 	stw	r4,-8(fp)
    8a78:	2805883a 	mov	r2,r5
    8a7c:	e1800215 	stw	r6,8(fp)
    8a80:	e1c00315 	stw	r7,12(fp)
    8a84:	e0bfff05 	stb	r2,-4(fp)
    8a88:	e13ffe17 	ldw	r4,-8(fp)
    8a8c:	00086700 	call	8670 <s_prints>
    8a90:	e0800204 	addi	r2,fp,8
    8a94:	e0bffd15 	stw	r2,-12(fp)
    8a98:	00000906 	br	8ac0 <s_printx+0x5c>
    8a9c:	e0bffd17 	ldw	r2,-12(fp)
    8aa0:	10c00104 	addi	r3,r2,4
    8aa4:	e0fffd15 	stw	r3,-12(fp)
    8aa8:	10800017 	ldw	r2,0(r2)
    8aac:	1009883a 	mov	r4,r2
    8ab0:	00088ac0 	call	88ac <s_putx>
    8ab4:	01000074 	movhi	r4,1
    8ab8:	21313a04 	addi	r4,r4,-15128
    8abc:	00086700 	call	8670 <s_prints>
    8ac0:	e0bfff03 	ldbu	r2,-4(fp)
    8ac4:	10ffffc4 	addi	r3,r2,-1
    8ac8:	e0ffff05 	stb	r3,-4(fp)
    8acc:	10803fcc 	andi	r2,r2,255
    8ad0:	103ff21e 	bne	r2,zero,8a9c <s_printx+0x38>
    8ad4:	00089240 	call	8924 <put_line>
    8ad8:	0001883a 	nop
    8adc:	e037883a 	mov	sp,fp
    8ae0:	dfc00117 	ldw	ra,4(sp)
    8ae4:	df000017 	ldw	fp,0(sp)
    8ae8:	dec00404 	addi	sp,sp,16
    8aec:	f800283a 	ret

00008af0 <s_printb>:
    8af0:	defff904 	addi	sp,sp,-28
    8af4:	dfc00415 	stw	ra,16(sp)
    8af8:	df000315 	stw	fp,12(sp)
    8afc:	df000304 	addi	fp,sp,12
    8b00:	e13ffe15 	stw	r4,-8(fp)
    8b04:	2805883a 	mov	r2,r5
    8b08:	e1800215 	stw	r6,8(fp)
    8b0c:	e1c00315 	stw	r7,12(fp)
    8b10:	e0bfff05 	stb	r2,-4(fp)
    8b14:	e13ffe17 	ldw	r4,-8(fp)
    8b18:	00086700 	call	8670 <s_prints>
    8b1c:	e0800204 	addi	r2,fp,8
    8b20:	e0bffd15 	stw	r2,-12(fp)
    8b24:	00000806 	br	8b48 <s_printb+0x58>
    8b28:	e0bffd17 	ldw	r2,-12(fp)
    8b2c:	10c00104 	addi	r3,r2,4
    8b30:	e0fffd15 	stw	r3,-12(fp)
    8b34:	10800017 	ldw	r2,0(r2)
    8b38:	10803fcc 	andi	r2,r2,255
    8b3c:	1009883a 	mov	r4,r2
    8b40:	00088ac0 	call	88ac <s_putx>
    8b44:	00088f00 	call	88f0 <put_space>
    8b48:	e0bfff03 	ldbu	r2,-4(fp)
    8b4c:	10ffffc4 	addi	r3,r2,-1
    8b50:	e0ffff05 	stb	r3,-4(fp)
    8b54:	10803fcc 	andi	r2,r2,255
    8b58:	103ff31e 	bne	r2,zero,8b28 <s_printb+0x38>
    8b5c:	00089240 	call	8924 <put_line>
    8b60:	0001883a 	nop
    8b64:	e037883a 	mov	sp,fp
    8b68:	dfc00117 	ldw	ra,4(sp)
    8b6c:	df000017 	ldw	fp,0(sp)
    8b70:	dec00404 	addi	sp,sp,16
    8b74:	f800283a 	ret

00008b78 <s_printlx>:
    8b78:	defff904 	addi	sp,sp,-28
    8b7c:	dfc00415 	stw	ra,16(sp)
    8b80:	df000315 	stw	fp,12(sp)
    8b84:	df000304 	addi	fp,sp,12
    8b88:	e13ffe15 	stw	r4,-8(fp)
    8b8c:	2805883a 	mov	r2,r5
    8b90:	e1800215 	stw	r6,8(fp)
    8b94:	e1c00315 	stw	r7,12(fp)
    8b98:	e0bfff05 	stb	r2,-4(fp)
    8b9c:	e13ffe17 	ldw	r4,-8(fp)
    8ba0:	00086700 	call	8670 <s_prints>
    8ba4:	e0800204 	addi	r2,fp,8
    8ba8:	e0bffd15 	stw	r2,-12(fp)
    8bac:	00000706 	br	8bcc <s_printlx+0x54>
    8bb0:	e0bffd17 	ldw	r2,-12(fp)
    8bb4:	10c00104 	addi	r3,r2,4
    8bb8:	e0fffd15 	stw	r3,-12(fp)
    8bbc:	10800017 	ldw	r2,0(r2)
    8bc0:	1009883a 	mov	r4,r2
    8bc4:	00088ac0 	call	88ac <s_putx>
    8bc8:	00088f00 	call	88f0 <put_space>
    8bcc:	e0bfff03 	ldbu	r2,-4(fp)
    8bd0:	10ffffc4 	addi	r3,r2,-1
    8bd4:	e0ffff05 	stb	r3,-4(fp)
    8bd8:	10803fcc 	andi	r2,r2,255
    8bdc:	103ff41e 	bne	r2,zero,8bb0 <s_printlx+0x38>
    8be0:	00089240 	call	8924 <put_line>
    8be4:	0001883a 	nop
    8be8:	e037883a 	mov	sp,fp
    8bec:	dfc00117 	ldw	ra,4(sp)
    8bf0:	df000017 	ldw	fp,0(sp)
    8bf4:	dec00404 	addi	sp,sp,16
    8bf8:	f800283a 	ret

00008bfc <__divsi3>:
    8bfc:	20001b16 	blt	r4,zero,8c6c <__divsi3+0x70>
    8c00:	000f883a 	mov	r7,zero
    8c04:	28001616 	blt	r5,zero,8c60 <__divsi3+0x64>
    8c08:	200d883a 	mov	r6,r4
    8c0c:	29001a2e 	bgeu	r5,r4,8c78 <__divsi3+0x7c>
    8c10:	00800804 	movi	r2,32
    8c14:	00c00044 	movi	r3,1
    8c18:	00000106 	br	8c20 <__divsi3+0x24>
    8c1c:	10000d26 	beq	r2,zero,8c54 <__divsi3+0x58>
    8c20:	294b883a 	add	r5,r5,r5
    8c24:	10bfffc4 	addi	r2,r2,-1
    8c28:	18c7883a 	add	r3,r3,r3
    8c2c:	293ffb36 	bltu	r5,r4,8c1c <__divsi3+0x20>
    8c30:	0005883a 	mov	r2,zero
    8c34:	18000726 	beq	r3,zero,8c54 <__divsi3+0x58>
    8c38:	0005883a 	mov	r2,zero
    8c3c:	31400236 	bltu	r6,r5,8c48 <__divsi3+0x4c>
    8c40:	314dc83a 	sub	r6,r6,r5
    8c44:	10c4b03a 	or	r2,r2,r3
    8c48:	1806d07a 	srli	r3,r3,1
    8c4c:	280ad07a 	srli	r5,r5,1
    8c50:	183ffa1e 	bne	r3,zero,8c3c <__divsi3+0x40>
    8c54:	38000126 	beq	r7,zero,8c5c <__divsi3+0x60>
    8c58:	0085c83a 	sub	r2,zero,r2
    8c5c:	f800283a 	ret
    8c60:	014bc83a 	sub	r5,zero,r5
    8c64:	39c0005c 	xori	r7,r7,1
    8c68:	003fe706 	br	8c08 <__divsi3+0xc>
    8c6c:	0109c83a 	sub	r4,zero,r4
    8c70:	01c00044 	movi	r7,1
    8c74:	003fe306 	br	8c04 <__divsi3+0x8>
    8c78:	00c00044 	movi	r3,1
    8c7c:	003fee06 	br	8c38 <__divsi3+0x3c>

00008c80 <__modsi3>:
    8c80:	20001716 	blt	r4,zero,8ce0 <__modsi3+0x60>
    8c84:	000f883a 	mov	r7,zero
    8c88:	2005883a 	mov	r2,r4
    8c8c:	28001216 	blt	r5,zero,8cd8 <__modsi3+0x58>
    8c90:	2900162e 	bgeu	r5,r4,8cec <__modsi3+0x6c>
    8c94:	01800804 	movi	r6,32
    8c98:	00c00044 	movi	r3,1
    8c9c:	00000106 	br	8ca4 <__modsi3+0x24>
    8ca0:	30000a26 	beq	r6,zero,8ccc <__modsi3+0x4c>
    8ca4:	294b883a 	add	r5,r5,r5
    8ca8:	31bfffc4 	addi	r6,r6,-1
    8cac:	18c7883a 	add	r3,r3,r3
    8cb0:	293ffb36 	bltu	r5,r4,8ca0 <__modsi3+0x20>
    8cb4:	18000526 	beq	r3,zero,8ccc <__modsi3+0x4c>
    8cb8:	1806d07a 	srli	r3,r3,1
    8cbc:	11400136 	bltu	r2,r5,8cc4 <__modsi3+0x44>
    8cc0:	1145c83a 	sub	r2,r2,r5
    8cc4:	280ad07a 	srli	r5,r5,1
    8cc8:	183ffb1e 	bne	r3,zero,8cb8 <__modsi3+0x38>
    8ccc:	38000126 	beq	r7,zero,8cd4 <__modsi3+0x54>
    8cd0:	0085c83a 	sub	r2,zero,r2
    8cd4:	f800283a 	ret
    8cd8:	014bc83a 	sub	r5,zero,r5
    8cdc:	003fec06 	br	8c90 <__modsi3+0x10>
    8ce0:	0109c83a 	sub	r4,zero,r4
    8ce4:	01c00044 	movi	r7,1
    8ce8:	003fe706 	br	8c88 <__modsi3+0x8>
    8cec:	00c00044 	movi	r3,1
    8cf0:	003ff106 	br	8cb8 <__modsi3+0x38>

00008cf4 <__udivsi3>:
    8cf4:	200d883a 	mov	r6,r4
    8cf8:	2900152e 	bgeu	r5,r4,8d50 <__udivsi3+0x5c>
    8cfc:	28001416 	blt	r5,zero,8d50 <__udivsi3+0x5c>
    8d00:	00800804 	movi	r2,32
    8d04:	00c00044 	movi	r3,1
    8d08:	00000206 	br	8d14 <__udivsi3+0x20>
    8d0c:	10000e26 	beq	r2,zero,8d48 <__udivsi3+0x54>
    8d10:	28000516 	blt	r5,zero,8d28 <__udivsi3+0x34>
    8d14:	294b883a 	add	r5,r5,r5
    8d18:	10bfffc4 	addi	r2,r2,-1
    8d1c:	18c7883a 	add	r3,r3,r3
    8d20:	293ffa36 	bltu	r5,r4,8d0c <__udivsi3+0x18>
    8d24:	18000826 	beq	r3,zero,8d48 <__udivsi3+0x54>
    8d28:	0005883a 	mov	r2,zero
    8d2c:	31400236 	bltu	r6,r5,8d38 <__udivsi3+0x44>
    8d30:	314dc83a 	sub	r6,r6,r5
    8d34:	10c4b03a 	or	r2,r2,r3
    8d38:	1806d07a 	srli	r3,r3,1
    8d3c:	280ad07a 	srli	r5,r5,1
    8d40:	183ffa1e 	bne	r3,zero,8d2c <__udivsi3+0x38>
    8d44:	f800283a 	ret
    8d48:	0005883a 	mov	r2,zero
    8d4c:	f800283a 	ret
    8d50:	00c00044 	movi	r3,1
    8d54:	003ff406 	br	8d28 <__udivsi3+0x34>

00008d58 <__umodsi3>:
    8d58:	2005883a 	mov	r2,r4
    8d5c:	2900122e 	bgeu	r5,r4,8da8 <__umodsi3+0x50>
    8d60:	28001116 	blt	r5,zero,8da8 <__umodsi3+0x50>
    8d64:	01800804 	movi	r6,32
    8d68:	00c00044 	movi	r3,1
    8d6c:	00000206 	br	8d78 <__umodsi3+0x20>
    8d70:	30000c26 	beq	r6,zero,8da4 <__umodsi3+0x4c>
    8d74:	28000516 	blt	r5,zero,8d8c <__umodsi3+0x34>
    8d78:	294b883a 	add	r5,r5,r5
    8d7c:	31bfffc4 	addi	r6,r6,-1
    8d80:	18c7883a 	add	r3,r3,r3
    8d84:	293ffa36 	bltu	r5,r4,8d70 <__umodsi3+0x18>
    8d88:	18000626 	beq	r3,zero,8da4 <__umodsi3+0x4c>
    8d8c:	1806d07a 	srli	r3,r3,1
    8d90:	11400136 	bltu	r2,r5,8d98 <__umodsi3+0x40>
    8d94:	1145c83a 	sub	r2,r2,r5
    8d98:	280ad07a 	srli	r5,r5,1
    8d9c:	183ffb1e 	bne	r3,zero,8d8c <__umodsi3+0x34>
    8da0:	f800283a 	ret
    8da4:	f800283a 	ret
    8da8:	00c00044 	movi	r3,1
    8dac:	003ff706 	br	8d8c <__umodsi3+0x34>

00008db0 <_getc_r>:
    8db0:	defffd04 	addi	sp,sp,-12
    8db4:	dc000115 	stw	r16,4(sp)
    8db8:	dfc00215 	stw	ra,8(sp)
    8dbc:	2021883a 	mov	r16,r4
    8dc0:	20000226 	beq	r4,zero,8dcc <_getc_r+0x1c>
    8dc4:	20800e17 	ldw	r2,56(r4)
    8dc8:	10000c26 	beq	r2,zero,8dfc <_getc_r+0x4c>
    8dcc:	28800117 	ldw	r2,4(r5)
    8dd0:	10bfffc4 	addi	r2,r2,-1
    8dd4:	28800115 	stw	r2,4(r5)
    8dd8:	10000c16 	blt	r2,zero,8e0c <_getc_r+0x5c>
    8ddc:	28800017 	ldw	r2,0(r5)
    8de0:	10c00044 	addi	r3,r2,1
    8de4:	28c00015 	stw	r3,0(r5)
    8de8:	10800003 	ldbu	r2,0(r2)
    8dec:	dfc00217 	ldw	ra,8(sp)
    8df0:	dc000117 	ldw	r16,4(sp)
    8df4:	dec00304 	addi	sp,sp,12
    8df8:	f800283a 	ret
    8dfc:	d9400015 	stw	r5,0(sp)
    8e00:	00092900 	call	9290 <__sinit>
    8e04:	d9400017 	ldw	r5,0(sp)
    8e08:	003ff006 	br	8dcc <_getc_r+0x1c>
    8e0c:	8009883a 	mov	r4,r16
    8e10:	dfc00217 	ldw	ra,8(sp)
    8e14:	dc000117 	ldw	r16,4(sp)
    8e18:	dec00304 	addi	sp,sp,12
    8e1c:	0008ea81 	jmpi	8ea8 <__srget_r>

00008e20 <getc>:
    8e20:	00800074 	movhi	r2,1
    8e24:	defffd04 	addi	sp,sp,-12
    8e28:	10b3d404 	addi	r2,r2,-12464
    8e2c:	dc400115 	stw	r17,4(sp)
    8e30:	14400017 	ldw	r17,0(r2)
    8e34:	dc000015 	stw	r16,0(sp)
    8e38:	dfc00215 	stw	ra,8(sp)
    8e3c:	2021883a 	mov	r16,r4
    8e40:	88000226 	beq	r17,zero,8e4c <getc+0x2c>
    8e44:	88800e17 	ldw	r2,56(r17)
    8e48:	10000d26 	beq	r2,zero,8e80 <getc+0x60>
    8e4c:	80800117 	ldw	r2,4(r16)
    8e50:	10bfffc4 	addi	r2,r2,-1
    8e54:	80800115 	stw	r2,4(r16)
    8e58:	10000c16 	blt	r2,zero,8e8c <getc+0x6c>
    8e5c:	80800017 	ldw	r2,0(r16)
    8e60:	10c00044 	addi	r3,r2,1
    8e64:	80c00015 	stw	r3,0(r16)
    8e68:	10800003 	ldbu	r2,0(r2)
    8e6c:	dfc00217 	ldw	ra,8(sp)
    8e70:	dc400117 	ldw	r17,4(sp)
    8e74:	dc000017 	ldw	r16,0(sp)
    8e78:	dec00304 	addi	sp,sp,12
    8e7c:	f800283a 	ret
    8e80:	8809883a 	mov	r4,r17
    8e84:	00092900 	call	9290 <__sinit>
    8e88:	003ff006 	br	8e4c <getc+0x2c>
    8e8c:	800b883a 	mov	r5,r16
    8e90:	8809883a 	mov	r4,r17
    8e94:	dfc00217 	ldw	ra,8(sp)
    8e98:	dc400117 	ldw	r17,4(sp)
    8e9c:	dc000017 	ldw	r16,0(sp)
    8ea0:	dec00304 	addi	sp,sp,12
    8ea4:	0008ea81 	jmpi	8ea8 <__srget_r>

00008ea8 <__srget_r>:
    8ea8:	defffd04 	addi	sp,sp,-12
    8eac:	dc400115 	stw	r17,4(sp)
    8eb0:	dc000015 	stw	r16,0(sp)
    8eb4:	dfc00215 	stw	ra,8(sp)
    8eb8:	2023883a 	mov	r17,r4
    8ebc:	2821883a 	mov	r16,r5
    8ec0:	20000226 	beq	r4,zero,8ecc <__srget_r+0x24>
    8ec4:	20800e17 	ldw	r2,56(r4)
    8ec8:	10001026 	beq	r2,zero,8f0c <__srget_r+0x64>
    8ecc:	800b883a 	mov	r5,r16
    8ed0:	8809883a 	mov	r4,r17
    8ed4:	0009db80 	call	9db8 <__srefill_r>
    8ed8:	10000e1e 	bne	r2,zero,8f14 <__srget_r+0x6c>
    8edc:	80c00017 	ldw	r3,0(r16)
    8ee0:	80800117 	ldw	r2,4(r16)
    8ee4:	19000044 	addi	r4,r3,1
    8ee8:	10bfffc4 	addi	r2,r2,-1
    8eec:	80800115 	stw	r2,4(r16)
    8ef0:	81000015 	stw	r4,0(r16)
    8ef4:	18800003 	ldbu	r2,0(r3)
    8ef8:	dfc00217 	ldw	ra,8(sp)
    8efc:	dc400117 	ldw	r17,4(sp)
    8f00:	dc000017 	ldw	r16,0(sp)
    8f04:	dec00304 	addi	sp,sp,12
    8f08:	f800283a 	ret
    8f0c:	00092900 	call	9290 <__sinit>
    8f10:	003fee06 	br	8ecc <__srget_r+0x24>
    8f14:	00bfffc4 	movi	r2,-1
    8f18:	003ff706 	br	8ef8 <__srget_r+0x50>

00008f1c <__srget>:
    8f1c:	00800074 	movhi	r2,1
    8f20:	10b3d404 	addi	r2,r2,-12464
    8f24:	200b883a 	mov	r5,r4
    8f28:	11000017 	ldw	r4,0(r2)
    8f2c:	0008ea81 	jmpi	8ea8 <__srget_r>

00008f30 <__fp_unlock>:
    8f30:	0005883a 	mov	r2,zero
    8f34:	f800283a 	ret

00008f38 <_cleanup_r>:
    8f38:	01400074 	movhi	r5,1
    8f3c:	29687404 	addi	r5,r5,-24112
    8f40:	00093a41 	jmpi	93a4 <_fwalk_reent>

00008f44 <__sinit.part.1>:
    8f44:	defff704 	addi	sp,sp,-36
    8f48:	00c00074 	movhi	r3,1
    8f4c:	dfc00815 	stw	ra,32(sp)
    8f50:	ddc00715 	stw	r23,28(sp)
    8f54:	dd800615 	stw	r22,24(sp)
    8f58:	dd400515 	stw	r21,20(sp)
    8f5c:	dd000415 	stw	r20,16(sp)
    8f60:	dcc00315 	stw	r19,12(sp)
    8f64:	dc800215 	stw	r18,8(sp)
    8f68:	dc400115 	stw	r17,4(sp)
    8f6c:	dc000015 	stw	r16,0(sp)
    8f70:	18e3ce04 	addi	r3,r3,-28872
    8f74:	24000117 	ldw	r16,4(r4)
    8f78:	20c00f15 	stw	r3,60(r4)
    8f7c:	2080bb04 	addi	r2,r4,748
    8f80:	00c000c4 	movi	r3,3
    8f84:	20c0b915 	stw	r3,740(r4)
    8f88:	2080ba15 	stw	r2,744(r4)
    8f8c:	2000b815 	stw	zero,736(r4)
    8f90:	05c00204 	movi	r23,8
    8f94:	00800104 	movi	r2,4
    8f98:	2025883a 	mov	r18,r4
    8f9c:	b80d883a 	mov	r6,r23
    8fa0:	81001704 	addi	r4,r16,92
    8fa4:	000b883a 	mov	r5,zero
    8fa8:	80000015 	stw	zero,0(r16)
    8fac:	80000115 	stw	zero,4(r16)
    8fb0:	80000215 	stw	zero,8(r16)
    8fb4:	8080030d 	sth	r2,12(r16)
    8fb8:	80001915 	stw	zero,100(r16)
    8fbc:	8000038d 	sth	zero,14(r16)
    8fc0:	80000415 	stw	zero,16(r16)
    8fc4:	80000515 	stw	zero,20(r16)
    8fc8:	80000615 	stw	zero,24(r16)
    8fcc:	0009c740 	call	9c74 <memset>
    8fd0:	05800074 	movhi	r22,1
    8fd4:	94400217 	ldw	r17,8(r18)
    8fd8:	05400074 	movhi	r21,1
    8fdc:	05000074 	movhi	r20,1
    8fe0:	04c00074 	movhi	r19,1
    8fe4:	b5a7f804 	addi	r22,r22,-24608
    8fe8:	ad680f04 	addi	r21,r21,-24516
    8fec:	a5282e04 	addi	r20,r20,-24392
    8ff0:	9ce84504 	addi	r19,r19,-24300
    8ff4:	85800815 	stw	r22,32(r16)
    8ff8:	85400915 	stw	r21,36(r16)
    8ffc:	85000a15 	stw	r20,40(r16)
    9000:	84c00b15 	stw	r19,44(r16)
    9004:	84000715 	stw	r16,28(r16)
    9008:	00800284 	movi	r2,10
    900c:	8880030d 	sth	r2,12(r17)
    9010:	00800044 	movi	r2,1
    9014:	b80d883a 	mov	r6,r23
    9018:	89001704 	addi	r4,r17,92
    901c:	000b883a 	mov	r5,zero
    9020:	88000015 	stw	zero,0(r17)
    9024:	88000115 	stw	zero,4(r17)
    9028:	88000215 	stw	zero,8(r17)
    902c:	88001915 	stw	zero,100(r17)
    9030:	8880038d 	sth	r2,14(r17)
    9034:	88000415 	stw	zero,16(r17)
    9038:	88000515 	stw	zero,20(r17)
    903c:	88000615 	stw	zero,24(r17)
    9040:	0009c740 	call	9c74 <memset>
    9044:	94000317 	ldw	r16,12(r18)
    9048:	00800484 	movi	r2,18
    904c:	8c400715 	stw	r17,28(r17)
    9050:	8d800815 	stw	r22,32(r17)
    9054:	8d400915 	stw	r21,36(r17)
    9058:	8d000a15 	stw	r20,40(r17)
    905c:	8cc00b15 	stw	r19,44(r17)
    9060:	8080030d 	sth	r2,12(r16)
    9064:	00800084 	movi	r2,2
    9068:	80000015 	stw	zero,0(r16)
    906c:	80000115 	stw	zero,4(r16)
    9070:	80000215 	stw	zero,8(r16)
    9074:	80001915 	stw	zero,100(r16)
    9078:	8080038d 	sth	r2,14(r16)
    907c:	80000415 	stw	zero,16(r16)
    9080:	80000515 	stw	zero,20(r16)
    9084:	80000615 	stw	zero,24(r16)
    9088:	b80d883a 	mov	r6,r23
    908c:	000b883a 	mov	r5,zero
    9090:	81001704 	addi	r4,r16,92
    9094:	0009c740 	call	9c74 <memset>
    9098:	00800044 	movi	r2,1
    909c:	84000715 	stw	r16,28(r16)
    90a0:	85800815 	stw	r22,32(r16)
    90a4:	85400915 	stw	r21,36(r16)
    90a8:	85000a15 	stw	r20,40(r16)
    90ac:	84c00b15 	stw	r19,44(r16)
    90b0:	90800e15 	stw	r2,56(r18)
    90b4:	dfc00817 	ldw	ra,32(sp)
    90b8:	ddc00717 	ldw	r23,28(sp)
    90bc:	dd800617 	ldw	r22,24(sp)
    90c0:	dd400517 	ldw	r21,20(sp)
    90c4:	dd000417 	ldw	r20,16(sp)
    90c8:	dcc00317 	ldw	r19,12(sp)
    90cc:	dc800217 	ldw	r18,8(sp)
    90d0:	dc400117 	ldw	r17,4(sp)
    90d4:	dc000017 	ldw	r16,0(sp)
    90d8:	dec00904 	addi	sp,sp,36
    90dc:	f800283a 	ret

000090e0 <__fp_lock>:
    90e0:	0005883a 	mov	r2,zero
    90e4:	f800283a 	ret

000090e8 <__sfmoreglue>:
    90e8:	defffc04 	addi	sp,sp,-16
    90ec:	dc800215 	stw	r18,8(sp)
    90f0:	2825883a 	mov	r18,r5
    90f4:	dc000015 	stw	r16,0(sp)
    90f8:	01401a04 	movi	r5,104
    90fc:	2021883a 	mov	r16,r4
    9100:	913fffc4 	addi	r4,r18,-1
    9104:	dfc00315 	stw	ra,12(sp)
    9108:	dc400115 	stw	r17,4(sp)
    910c:	000acdc0 	call	acdc <__mulsi3>
    9110:	8009883a 	mov	r4,r16
    9114:	11401d04 	addi	r5,r2,116
    9118:	1023883a 	mov	r17,r2
    911c:	00094680 	call	9468 <_malloc_r>
    9120:	1021883a 	mov	r16,r2
    9124:	10000726 	beq	r2,zero,9144 <__sfmoreglue+0x5c>
    9128:	11000304 	addi	r4,r2,12
    912c:	10000015 	stw	zero,0(r2)
    9130:	14800115 	stw	r18,4(r2)
    9134:	11000215 	stw	r4,8(r2)
    9138:	89801a04 	addi	r6,r17,104
    913c:	000b883a 	mov	r5,zero
    9140:	0009c740 	call	9c74 <memset>
    9144:	8005883a 	mov	r2,r16
    9148:	dfc00317 	ldw	ra,12(sp)
    914c:	dc800217 	ldw	r18,8(sp)
    9150:	dc400117 	ldw	r17,4(sp)
    9154:	dc000017 	ldw	r16,0(sp)
    9158:	dec00404 	addi	sp,sp,16
    915c:	f800283a 	ret

00009160 <__sfp>:
    9160:	defffb04 	addi	sp,sp,-20
    9164:	dc000015 	stw	r16,0(sp)
    9168:	04000074 	movhi	r16,1
    916c:	8433d304 	addi	r16,r16,-12468
    9170:	dcc00315 	stw	r19,12(sp)
    9174:	2027883a 	mov	r19,r4
    9178:	81000017 	ldw	r4,0(r16)
    917c:	dfc00415 	stw	ra,16(sp)
    9180:	dc800215 	stw	r18,8(sp)
    9184:	20800e17 	ldw	r2,56(r4)
    9188:	dc400115 	stw	r17,4(sp)
    918c:	1000021e 	bne	r2,zero,9198 <__sfp+0x38>
    9190:	0008f440 	call	8f44 <__sinit.part.1>
    9194:	81000017 	ldw	r4,0(r16)
    9198:	2480b804 	addi	r18,r4,736
    919c:	047fffc4 	movi	r17,-1
    91a0:	91000117 	ldw	r4,4(r18)
    91a4:	94000217 	ldw	r16,8(r18)
    91a8:	213fffc4 	addi	r4,r4,-1
    91ac:	20000a16 	blt	r4,zero,91d8 <__sfp+0x78>
    91b0:	8080030f 	ldh	r2,12(r16)
    91b4:	10000c26 	beq	r2,zero,91e8 <__sfp+0x88>
    91b8:	80c01d04 	addi	r3,r16,116
    91bc:	00000206 	br	91c8 <__sfp+0x68>
    91c0:	18bfe60f 	ldh	r2,-104(r3)
    91c4:	10000826 	beq	r2,zero,91e8 <__sfp+0x88>
    91c8:	213fffc4 	addi	r4,r4,-1
    91cc:	1c3ffd04 	addi	r16,r3,-12
    91d0:	18c01a04 	addi	r3,r3,104
    91d4:	247ffa1e 	bne	r4,r17,91c0 <__sfp+0x60>
    91d8:	90800017 	ldw	r2,0(r18)
    91dc:	10001d26 	beq	r2,zero,9254 <__sfp+0xf4>
    91e0:	1025883a 	mov	r18,r2
    91e4:	003fee06 	br	91a0 <__sfp+0x40>
    91e8:	00bfffc4 	movi	r2,-1
    91ec:	8080038d 	sth	r2,14(r16)
    91f0:	00800044 	movi	r2,1
    91f4:	8080030d 	sth	r2,12(r16)
    91f8:	80001915 	stw	zero,100(r16)
    91fc:	80000015 	stw	zero,0(r16)
    9200:	80000215 	stw	zero,8(r16)
    9204:	80000115 	stw	zero,4(r16)
    9208:	80000415 	stw	zero,16(r16)
    920c:	80000515 	stw	zero,20(r16)
    9210:	80000615 	stw	zero,24(r16)
    9214:	01800204 	movi	r6,8
    9218:	000b883a 	mov	r5,zero
    921c:	81001704 	addi	r4,r16,92
    9220:	0009c740 	call	9c74 <memset>
    9224:	8005883a 	mov	r2,r16
    9228:	80000c15 	stw	zero,48(r16)
    922c:	80000d15 	stw	zero,52(r16)
    9230:	80001115 	stw	zero,68(r16)
    9234:	80001215 	stw	zero,72(r16)
    9238:	dfc00417 	ldw	ra,16(sp)
    923c:	dcc00317 	ldw	r19,12(sp)
    9240:	dc800217 	ldw	r18,8(sp)
    9244:	dc400117 	ldw	r17,4(sp)
    9248:	dc000017 	ldw	r16,0(sp)
    924c:	dec00504 	addi	sp,sp,20
    9250:	f800283a 	ret
    9254:	01400104 	movi	r5,4
    9258:	9809883a 	mov	r4,r19
    925c:	00090e80 	call	90e8 <__sfmoreglue>
    9260:	90800015 	stw	r2,0(r18)
    9264:	103fde1e 	bne	r2,zero,91e0 <__sfp+0x80>
    9268:	00800304 	movi	r2,12
    926c:	98800015 	stw	r2,0(r19)
    9270:	0005883a 	mov	r2,zero
    9274:	003ff006 	br	9238 <__sfp+0xd8>

00009278 <_cleanup>:
    9278:	00800074 	movhi	r2,1
    927c:	10b3d304 	addi	r2,r2,-12468
    9280:	11000017 	ldw	r4,0(r2)
    9284:	01400074 	movhi	r5,1
    9288:	29687404 	addi	r5,r5,-24112
    928c:	00093a41 	jmpi	93a4 <_fwalk_reent>

00009290 <__sinit>:
    9290:	20800e17 	ldw	r2,56(r4)
    9294:	10000126 	beq	r2,zero,929c <__sinit+0xc>
    9298:	f800283a 	ret
    929c:	0008f441 	jmpi	8f44 <__sinit.part.1>

000092a0 <__sfp_lock_acquire>:
    92a0:	f800283a 	ret

000092a4 <__sfp_lock_release>:
    92a4:	f800283a 	ret

000092a8 <__sinit_lock_acquire>:
    92a8:	f800283a 	ret

000092ac <__sinit_lock_release>:
    92ac:	f800283a 	ret

000092b0 <__fp_lock_all>:
    92b0:	00800074 	movhi	r2,1
    92b4:	10b3d404 	addi	r2,r2,-12464
    92b8:	11000017 	ldw	r4,0(r2)
    92bc:	01400074 	movhi	r5,1
    92c0:	29643804 	addi	r5,r5,-28448
    92c4:	00092e01 	jmpi	92e0 <_fwalk>

000092c8 <__fp_unlock_all>:
    92c8:	00800074 	movhi	r2,1
    92cc:	10b3d404 	addi	r2,r2,-12464
    92d0:	11000017 	ldw	r4,0(r2)
    92d4:	01400074 	movhi	r5,1
    92d8:	2963cc04 	addi	r5,r5,-28880
    92dc:	00092e01 	jmpi	92e0 <_fwalk>

000092e0 <_fwalk>:
    92e0:	defff704 	addi	sp,sp,-36
    92e4:	dd000415 	stw	r20,16(sp)
    92e8:	dfc00815 	stw	ra,32(sp)
    92ec:	ddc00715 	stw	r23,28(sp)
    92f0:	dd800615 	stw	r22,24(sp)
    92f4:	dd400515 	stw	r21,20(sp)
    92f8:	dcc00315 	stw	r19,12(sp)
    92fc:	dc800215 	stw	r18,8(sp)
    9300:	dc400115 	stw	r17,4(sp)
    9304:	dc000015 	stw	r16,0(sp)
    9308:	2500b804 	addi	r20,r4,736
    930c:	a0002326 	beq	r20,zero,939c <_fwalk+0xbc>
    9310:	282b883a 	mov	r21,r5
    9314:	002f883a 	mov	r23,zero
    9318:	05800044 	movi	r22,1
    931c:	04ffffc4 	movi	r19,-1
    9320:	a4400117 	ldw	r17,4(r20)
    9324:	a4800217 	ldw	r18,8(r20)
    9328:	8c7fffc4 	addi	r17,r17,-1
    932c:	88000d16 	blt	r17,zero,9364 <_fwalk+0x84>
    9330:	94000304 	addi	r16,r18,12
    9334:	94800384 	addi	r18,r18,14
    9338:	8080000b 	ldhu	r2,0(r16)
    933c:	8c7fffc4 	addi	r17,r17,-1
    9340:	813ffd04 	addi	r4,r16,-12
    9344:	b080042e 	bgeu	r22,r2,9358 <_fwalk+0x78>
    9348:	9080000f 	ldh	r2,0(r18)
    934c:	14c00226 	beq	r2,r19,9358 <_fwalk+0x78>
    9350:	a83ee83a 	callr	r21
    9354:	b8aeb03a 	or	r23,r23,r2
    9358:	84001a04 	addi	r16,r16,104
    935c:	94801a04 	addi	r18,r18,104
    9360:	8cfff51e 	bne	r17,r19,9338 <_fwalk+0x58>
    9364:	a5000017 	ldw	r20,0(r20)
    9368:	a03fed1e 	bne	r20,zero,9320 <_fwalk+0x40>
    936c:	b805883a 	mov	r2,r23
    9370:	dfc00817 	ldw	ra,32(sp)
    9374:	ddc00717 	ldw	r23,28(sp)
    9378:	dd800617 	ldw	r22,24(sp)
    937c:	dd400517 	ldw	r21,20(sp)
    9380:	dd000417 	ldw	r20,16(sp)
    9384:	dcc00317 	ldw	r19,12(sp)
    9388:	dc800217 	ldw	r18,8(sp)
    938c:	dc400117 	ldw	r17,4(sp)
    9390:	dc000017 	ldw	r16,0(sp)
    9394:	dec00904 	addi	sp,sp,36
    9398:	f800283a 	ret
    939c:	002f883a 	mov	r23,zero
    93a0:	003ff206 	br	936c <_fwalk+0x8c>

000093a4 <_fwalk_reent>:
    93a4:	defff704 	addi	sp,sp,-36
    93a8:	dd000415 	stw	r20,16(sp)
    93ac:	dfc00815 	stw	ra,32(sp)
    93b0:	ddc00715 	stw	r23,28(sp)
    93b4:	dd800615 	stw	r22,24(sp)
    93b8:	dd400515 	stw	r21,20(sp)
    93bc:	dcc00315 	stw	r19,12(sp)
    93c0:	dc800215 	stw	r18,8(sp)
    93c4:	dc400115 	stw	r17,4(sp)
    93c8:	dc000015 	stw	r16,0(sp)
    93cc:	2500b804 	addi	r20,r4,736
    93d0:	a0002326 	beq	r20,zero,9460 <_fwalk_reent+0xbc>
    93d4:	282b883a 	mov	r21,r5
    93d8:	2027883a 	mov	r19,r4
    93dc:	002f883a 	mov	r23,zero
    93e0:	05800044 	movi	r22,1
    93e4:	04bfffc4 	movi	r18,-1
    93e8:	a4400117 	ldw	r17,4(r20)
    93ec:	a4000217 	ldw	r16,8(r20)
    93f0:	8c7fffc4 	addi	r17,r17,-1
    93f4:	88000c16 	blt	r17,zero,9428 <_fwalk_reent+0x84>
    93f8:	84000304 	addi	r16,r16,12
    93fc:	8080000b 	ldhu	r2,0(r16)
    9400:	8c7fffc4 	addi	r17,r17,-1
    9404:	817ffd04 	addi	r5,r16,-12
    9408:	b080052e 	bgeu	r22,r2,9420 <_fwalk_reent+0x7c>
    940c:	8080008f 	ldh	r2,2(r16)
    9410:	9809883a 	mov	r4,r19
    9414:	14800226 	beq	r2,r18,9420 <_fwalk_reent+0x7c>
    9418:	a83ee83a 	callr	r21
    941c:	b8aeb03a 	or	r23,r23,r2
    9420:	84001a04 	addi	r16,r16,104
    9424:	8cbff51e 	bne	r17,r18,93fc <_fwalk_reent+0x58>
    9428:	a5000017 	ldw	r20,0(r20)
    942c:	a03fee1e 	bne	r20,zero,93e8 <_fwalk_reent+0x44>
    9430:	b805883a 	mov	r2,r23
    9434:	dfc00817 	ldw	ra,32(sp)
    9438:	ddc00717 	ldw	r23,28(sp)
    943c:	dd800617 	ldw	r22,24(sp)
    9440:	dd400517 	ldw	r21,20(sp)
    9444:	dd000417 	ldw	r20,16(sp)
    9448:	dcc00317 	ldw	r19,12(sp)
    944c:	dc800217 	ldw	r18,8(sp)
    9450:	dc400117 	ldw	r17,4(sp)
    9454:	dc000017 	ldw	r16,0(sp)
    9458:	dec00904 	addi	sp,sp,36
    945c:	f800283a 	ret
    9460:	002f883a 	mov	r23,zero
    9464:	003ff206 	br	9430 <_fwalk_reent+0x8c>

00009468 <_malloc_r>:
    9468:	defff504 	addi	sp,sp,-44
    946c:	dc800315 	stw	r18,12(sp)
    9470:	dfc00a15 	stw	ra,40(sp)
    9474:	df000915 	stw	fp,36(sp)
    9478:	ddc00815 	stw	r23,32(sp)
    947c:	dd800715 	stw	r22,28(sp)
    9480:	dd400615 	stw	r21,24(sp)
    9484:	dd000515 	stw	r20,20(sp)
    9488:	dcc00415 	stw	r19,16(sp)
    948c:	dc400215 	stw	r17,8(sp)
    9490:	dc000115 	stw	r16,4(sp)
    9494:	288002c4 	addi	r2,r5,11
    9498:	00c00584 	movi	r3,22
    949c:	2025883a 	mov	r18,r4
    94a0:	18807f2e 	bgeu	r3,r2,96a0 <_malloc_r+0x238>
    94a4:	047ffe04 	movi	r17,-8
    94a8:	1462703a 	and	r17,r2,r17
    94ac:	8800a316 	blt	r17,zero,973c <_malloc_r+0x2d4>
    94b0:	8940a236 	bltu	r17,r5,973c <_malloc_r+0x2d4>
    94b4:	000b1b00 	call	b1b0 <__malloc_lock>
    94b8:	00807dc4 	movi	r2,503
    94bc:	1441e92e 	bgeu	r2,r17,9c64 <_malloc_r+0x7fc>
    94c0:	8804d27a 	srli	r2,r17,9
    94c4:	1000a126 	beq	r2,zero,974c <_malloc_r+0x2e4>
    94c8:	00c00104 	movi	r3,4
    94cc:	18811e36 	bltu	r3,r2,9948 <_malloc_r+0x4e0>
    94d0:	8804d1ba 	srli	r2,r17,6
    94d4:	12000e44 	addi	r8,r2,57
    94d8:	11c00e04 	addi	r7,r2,56
    94dc:	4209883a 	add	r4,r8,r8
    94e0:	04c00074 	movhi	r19,1
    94e4:	2109883a 	add	r4,r4,r4
    94e8:	9cf25004 	addi	r19,r19,-14016
    94ec:	2109883a 	add	r4,r4,r4
    94f0:	9909883a 	add	r4,r19,r4
    94f4:	24000117 	ldw	r16,4(r4)
    94f8:	213ffe04 	addi	r4,r4,-8
    94fc:	24009726 	beq	r4,r16,975c <_malloc_r+0x2f4>
    9500:	80800117 	ldw	r2,4(r16)
    9504:	01bfff04 	movi	r6,-4
    9508:	014003c4 	movi	r5,15
    950c:	1184703a 	and	r2,r2,r6
    9510:	1447c83a 	sub	r3,r2,r17
    9514:	28c00716 	blt	r5,r3,9534 <_malloc_r+0xcc>
    9518:	1800920e 	bge	r3,zero,9764 <_malloc_r+0x2fc>
    951c:	84000317 	ldw	r16,12(r16)
    9520:	24008e26 	beq	r4,r16,975c <_malloc_r+0x2f4>
    9524:	80800117 	ldw	r2,4(r16)
    9528:	1184703a 	and	r2,r2,r6
    952c:	1447c83a 	sub	r3,r2,r17
    9530:	28fff90e 	bge	r5,r3,9518 <_malloc_r+0xb0>
    9534:	3809883a 	mov	r4,r7
    9538:	01800074 	movhi	r6,1
    953c:	9c000417 	ldw	r16,16(r19)
    9540:	31b25004 	addi	r6,r6,-14016
    9544:	32000204 	addi	r8,r6,8
    9548:	82013426 	beq	r16,r8,9a1c <_malloc_r+0x5b4>
    954c:	80c00117 	ldw	r3,4(r16)
    9550:	00bfff04 	movi	r2,-4
    9554:	188e703a 	and	r7,r3,r2
    9558:	3c45c83a 	sub	r2,r7,r17
    955c:	00c003c4 	movi	r3,15
    9560:	18811f16 	blt	r3,r2,99e0 <_malloc_r+0x578>
    9564:	32000515 	stw	r8,20(r6)
    9568:	32000415 	stw	r8,16(r6)
    956c:	10007f0e 	bge	r2,zero,976c <_malloc_r+0x304>
    9570:	00807fc4 	movi	r2,511
    9574:	11c0fd36 	bltu	r2,r7,996c <_malloc_r+0x504>
    9578:	3806d0fa 	srli	r3,r7,3
    957c:	01c00044 	movi	r7,1
    9580:	30800117 	ldw	r2,4(r6)
    9584:	19400044 	addi	r5,r3,1
    9588:	294b883a 	add	r5,r5,r5
    958c:	1807d0ba 	srai	r3,r3,2
    9590:	294b883a 	add	r5,r5,r5
    9594:	294b883a 	add	r5,r5,r5
    9598:	298b883a 	add	r5,r5,r6
    959c:	38c6983a 	sll	r3,r7,r3
    95a0:	29c00017 	ldw	r7,0(r5)
    95a4:	2a7ffe04 	addi	r9,r5,-8
    95a8:	1886b03a 	or	r3,r3,r2
    95ac:	82400315 	stw	r9,12(r16)
    95b0:	81c00215 	stw	r7,8(r16)
    95b4:	30c00115 	stw	r3,4(r6)
    95b8:	2c000015 	stw	r16,0(r5)
    95bc:	3c000315 	stw	r16,12(r7)
    95c0:	2005d0ba 	srai	r2,r4,2
    95c4:	01400044 	movi	r5,1
    95c8:	288a983a 	sll	r5,r5,r2
    95cc:	19406f36 	bltu	r3,r5,978c <_malloc_r+0x324>
    95d0:	28c4703a 	and	r2,r5,r3
    95d4:	10000a1e 	bne	r2,zero,9600 <_malloc_r+0x198>
    95d8:	00bfff04 	movi	r2,-4
    95dc:	294b883a 	add	r5,r5,r5
    95e0:	2088703a 	and	r4,r4,r2
    95e4:	28c4703a 	and	r2,r5,r3
    95e8:	21000104 	addi	r4,r4,4
    95ec:	1000041e 	bne	r2,zero,9600 <_malloc_r+0x198>
    95f0:	294b883a 	add	r5,r5,r5
    95f4:	28c4703a 	and	r2,r5,r3
    95f8:	21000104 	addi	r4,r4,4
    95fc:	103ffc26 	beq	r2,zero,95f0 <_malloc_r+0x188>
    9600:	02bfff04 	movi	r10,-4
    9604:	024003c4 	movi	r9,15
    9608:	21800044 	addi	r6,r4,1
    960c:	318d883a 	add	r6,r6,r6
    9610:	318d883a 	add	r6,r6,r6
    9614:	318d883a 	add	r6,r6,r6
    9618:	998d883a 	add	r6,r19,r6
    961c:	333ffe04 	addi	r12,r6,-8
    9620:	2017883a 	mov	r11,r4
    9624:	31800104 	addi	r6,r6,4
    9628:	34000017 	ldw	r16,0(r6)
    962c:	31fffd04 	addi	r7,r6,-12
    9630:	81c0041e 	bne	r16,r7,9644 <_malloc_r+0x1dc>
    9634:	0000fb06 	br	9a24 <_malloc_r+0x5bc>
    9638:	1801030e 	bge	r3,zero,9a48 <_malloc_r+0x5e0>
    963c:	84000317 	ldw	r16,12(r16)
    9640:	81c0f826 	beq	r16,r7,9a24 <_malloc_r+0x5bc>
    9644:	80800117 	ldw	r2,4(r16)
    9648:	1284703a 	and	r2,r2,r10
    964c:	1447c83a 	sub	r3,r2,r17
    9650:	48fff90e 	bge	r9,r3,9638 <_malloc_r+0x1d0>
    9654:	80800317 	ldw	r2,12(r16)
    9658:	81000217 	ldw	r4,8(r16)
    965c:	89400054 	ori	r5,r17,1
    9660:	81400115 	stw	r5,4(r16)
    9664:	20800315 	stw	r2,12(r4)
    9668:	11000215 	stw	r4,8(r2)
    966c:	8463883a 	add	r17,r16,r17
    9670:	9c400515 	stw	r17,20(r19)
    9674:	9c400415 	stw	r17,16(r19)
    9678:	18800054 	ori	r2,r3,1
    967c:	88800115 	stw	r2,4(r17)
    9680:	8a000315 	stw	r8,12(r17)
    9684:	8a000215 	stw	r8,8(r17)
    9688:	88e3883a 	add	r17,r17,r3
    968c:	88c00015 	stw	r3,0(r17)
    9690:	9009883a 	mov	r4,r18
    9694:	000b1b40 	call	b1b4 <__malloc_unlock>
    9698:	80800204 	addi	r2,r16,8
    969c:	00001b06 	br	970c <_malloc_r+0x2a4>
    96a0:	04400404 	movi	r17,16
    96a4:	89402536 	bltu	r17,r5,973c <_malloc_r+0x2d4>
    96a8:	000b1b00 	call	b1b0 <__malloc_lock>
    96ac:	00800184 	movi	r2,6
    96b0:	01000084 	movi	r4,2
    96b4:	04c00074 	movhi	r19,1
    96b8:	1085883a 	add	r2,r2,r2
    96bc:	9cf25004 	addi	r19,r19,-14016
    96c0:	1085883a 	add	r2,r2,r2
    96c4:	9885883a 	add	r2,r19,r2
    96c8:	14000117 	ldw	r16,4(r2)
    96cc:	10fffe04 	addi	r3,r2,-8
    96d0:	80c0d926 	beq	r16,r3,9a38 <_malloc_r+0x5d0>
    96d4:	80c00117 	ldw	r3,4(r16)
    96d8:	81000317 	ldw	r4,12(r16)
    96dc:	00bfff04 	movi	r2,-4
    96e0:	1884703a 	and	r2,r3,r2
    96e4:	81400217 	ldw	r5,8(r16)
    96e8:	8085883a 	add	r2,r16,r2
    96ec:	10c00117 	ldw	r3,4(r2)
    96f0:	29000315 	stw	r4,12(r5)
    96f4:	21400215 	stw	r5,8(r4)
    96f8:	18c00054 	ori	r3,r3,1
    96fc:	10c00115 	stw	r3,4(r2)
    9700:	9009883a 	mov	r4,r18
    9704:	000b1b40 	call	b1b4 <__malloc_unlock>
    9708:	80800204 	addi	r2,r16,8
    970c:	dfc00a17 	ldw	ra,40(sp)
    9710:	df000917 	ldw	fp,36(sp)
    9714:	ddc00817 	ldw	r23,32(sp)
    9718:	dd800717 	ldw	r22,28(sp)
    971c:	dd400617 	ldw	r21,24(sp)
    9720:	dd000517 	ldw	r20,20(sp)
    9724:	dcc00417 	ldw	r19,16(sp)
    9728:	dc800317 	ldw	r18,12(sp)
    972c:	dc400217 	ldw	r17,8(sp)
    9730:	dc000117 	ldw	r16,4(sp)
    9734:	dec00b04 	addi	sp,sp,44
    9738:	f800283a 	ret
    973c:	00800304 	movi	r2,12
    9740:	90800015 	stw	r2,0(r18)
    9744:	0005883a 	mov	r2,zero
    9748:	003ff006 	br	970c <_malloc_r+0x2a4>
    974c:	01002004 	movi	r4,128
    9750:	02001004 	movi	r8,64
    9754:	01c00fc4 	movi	r7,63
    9758:	003f6106 	br	94e0 <_malloc_r+0x78>
    975c:	4009883a 	mov	r4,r8
    9760:	003f7506 	br	9538 <_malloc_r+0xd0>
    9764:	81000317 	ldw	r4,12(r16)
    9768:	003fde06 	br	96e4 <_malloc_r+0x27c>
    976c:	81c5883a 	add	r2,r16,r7
    9770:	11400117 	ldw	r5,4(r2)
    9774:	9009883a 	mov	r4,r18
    9778:	29400054 	ori	r5,r5,1
    977c:	11400115 	stw	r5,4(r2)
    9780:	000b1b40 	call	b1b4 <__malloc_unlock>
    9784:	80800204 	addi	r2,r16,8
    9788:	003fe006 	br	970c <_malloc_r+0x2a4>
    978c:	9c000217 	ldw	r16,8(r19)
    9790:	00bfff04 	movi	r2,-4
    9794:	85800117 	ldw	r22,4(r16)
    9798:	b0ac703a 	and	r22,r22,r2
    979c:	b4400336 	bltu	r22,r17,97ac <_malloc_r+0x344>
    97a0:	b445c83a 	sub	r2,r22,r17
    97a4:	00c003c4 	movi	r3,15
    97a8:	18805d16 	blt	r3,r2,9920 <_malloc_r+0x4b8>
    97ac:	05c00074 	movhi	r23,1
    97b0:	00800074 	movhi	r2,1
    97b4:	10b67d04 	addi	r2,r2,-9740
    97b8:	bdf3d504 	addi	r23,r23,-12460
    97bc:	15400017 	ldw	r21,0(r2)
    97c0:	b8c00017 	ldw	r3,0(r23)
    97c4:	00bfffc4 	movi	r2,-1
    97c8:	858d883a 	add	r6,r16,r22
    97cc:	8d6b883a 	add	r21,r17,r21
    97d0:	1880ea26 	beq	r3,r2,9b7c <_malloc_r+0x714>
    97d4:	ad4403c4 	addi	r21,r21,4111
    97d8:	00bc0004 	movi	r2,-4096
    97dc:	a8aa703a 	and	r21,r21,r2
    97e0:	a80b883a 	mov	r5,r21
    97e4:	9009883a 	mov	r4,r18
    97e8:	d9800015 	stw	r6,0(sp)
    97ec:	0009f8c0 	call	9f8c <_sbrk_r>
    97f0:	1029883a 	mov	r20,r2
    97f4:	00bfffc4 	movi	r2,-1
    97f8:	d9800017 	ldw	r6,0(sp)
    97fc:	a080e826 	beq	r20,r2,9ba0 <_malloc_r+0x738>
    9800:	a180a636 	bltu	r20,r6,9a9c <_malloc_r+0x634>
    9804:	07000074 	movhi	fp,1
    9808:	e7368904 	addi	fp,fp,-9692
    980c:	e0800017 	ldw	r2,0(fp)
    9810:	a887883a 	add	r3,r21,r2
    9814:	e0c00015 	stw	r3,0(fp)
    9818:	3500e626 	beq	r6,r20,9bb4 <_malloc_r+0x74c>
    981c:	b9000017 	ldw	r4,0(r23)
    9820:	00bfffc4 	movi	r2,-1
    9824:	2080ee26 	beq	r4,r2,9be0 <_malloc_r+0x778>
    9828:	a185c83a 	sub	r2,r20,r6
    982c:	10c5883a 	add	r2,r2,r3
    9830:	e0800015 	stw	r2,0(fp)
    9834:	a0c001cc 	andi	r3,r20,7
    9838:	1800bc26 	beq	r3,zero,9b2c <_malloc_r+0x6c4>
    983c:	a0e9c83a 	sub	r20,r20,r3
    9840:	00840204 	movi	r2,4104
    9844:	a5000204 	addi	r20,r20,8
    9848:	10c7c83a 	sub	r3,r2,r3
    984c:	a545883a 	add	r2,r20,r21
    9850:	1083ffcc 	andi	r2,r2,4095
    9854:	18abc83a 	sub	r21,r3,r2
    9858:	a80b883a 	mov	r5,r21
    985c:	9009883a 	mov	r4,r18
    9860:	0009f8c0 	call	9f8c <_sbrk_r>
    9864:	00ffffc4 	movi	r3,-1
    9868:	10c0e126 	beq	r2,r3,9bf0 <_malloc_r+0x788>
    986c:	1505c83a 	sub	r2,r2,r20
    9870:	1545883a 	add	r2,r2,r21
    9874:	10800054 	ori	r2,r2,1
    9878:	e0c00017 	ldw	r3,0(fp)
    987c:	9d000215 	stw	r20,8(r19)
    9880:	a0800115 	stw	r2,4(r20)
    9884:	a8c7883a 	add	r3,r21,r3
    9888:	e0c00015 	stw	r3,0(fp)
    988c:	84c00e26 	beq	r16,r19,98c8 <_malloc_r+0x460>
    9890:	018003c4 	movi	r6,15
    9894:	3580a72e 	bgeu	r6,r22,9b34 <_malloc_r+0x6cc>
    9898:	81400117 	ldw	r5,4(r16)
    989c:	013ffe04 	movi	r4,-8
    98a0:	b0bffd04 	addi	r2,r22,-12
    98a4:	1104703a 	and	r2,r2,r4
    98a8:	2900004c 	andi	r4,r5,1
    98ac:	2088b03a 	or	r4,r4,r2
    98b0:	81000115 	stw	r4,4(r16)
    98b4:	01400144 	movi	r5,5
    98b8:	8089883a 	add	r4,r16,r2
    98bc:	21400115 	stw	r5,4(r4)
    98c0:	21400215 	stw	r5,8(r4)
    98c4:	3080cd36 	bltu	r6,r2,9bfc <_malloc_r+0x794>
    98c8:	00800074 	movhi	r2,1
    98cc:	10b67c04 	addi	r2,r2,-9744
    98d0:	11000017 	ldw	r4,0(r2)
    98d4:	20c0012e 	bgeu	r4,r3,98dc <_malloc_r+0x474>
    98d8:	10c00015 	stw	r3,0(r2)
    98dc:	00800074 	movhi	r2,1
    98e0:	10b67b04 	addi	r2,r2,-9748
    98e4:	11000017 	ldw	r4,0(r2)
    98e8:	9c000217 	ldw	r16,8(r19)
    98ec:	20c0012e 	bgeu	r4,r3,98f4 <_malloc_r+0x48c>
    98f0:	10c00015 	stw	r3,0(r2)
    98f4:	80c00117 	ldw	r3,4(r16)
    98f8:	00bfff04 	movi	r2,-4
    98fc:	1886703a 	and	r3,r3,r2
    9900:	1c45c83a 	sub	r2,r3,r17
    9904:	1c400236 	bltu	r3,r17,9910 <_malloc_r+0x4a8>
    9908:	00c003c4 	movi	r3,15
    990c:	18800416 	blt	r3,r2,9920 <_malloc_r+0x4b8>
    9910:	9009883a 	mov	r4,r18
    9914:	000b1b40 	call	b1b4 <__malloc_unlock>
    9918:	0005883a 	mov	r2,zero
    991c:	003f7b06 	br	970c <_malloc_r+0x2a4>
    9920:	88c00054 	ori	r3,r17,1
    9924:	80c00115 	stw	r3,4(r16)
    9928:	8463883a 	add	r17,r16,r17
    992c:	10800054 	ori	r2,r2,1
    9930:	9c400215 	stw	r17,8(r19)
    9934:	88800115 	stw	r2,4(r17)
    9938:	9009883a 	mov	r4,r18
    993c:	000b1b40 	call	b1b4 <__malloc_unlock>
    9940:	80800204 	addi	r2,r16,8
    9944:	003f7106 	br	970c <_malloc_r+0x2a4>
    9948:	00c00504 	movi	r3,20
    994c:	18804a2e 	bgeu	r3,r2,9a78 <_malloc_r+0x610>
    9950:	00c01504 	movi	r3,84
    9954:	18806e36 	bltu	r3,r2,9b10 <_malloc_r+0x6a8>
    9958:	8804d33a 	srli	r2,r17,12
    995c:	12001bc4 	addi	r8,r2,111
    9960:	11c01b84 	addi	r7,r2,110
    9964:	4209883a 	add	r4,r8,r8
    9968:	003edd06 	br	94e0 <_malloc_r+0x78>
    996c:	3804d27a 	srli	r2,r7,9
    9970:	00c00104 	movi	r3,4
    9974:	1880442e 	bgeu	r3,r2,9a88 <_malloc_r+0x620>
    9978:	00c00504 	movi	r3,20
    997c:	18808136 	bltu	r3,r2,9b84 <_malloc_r+0x71c>
    9980:	11401704 	addi	r5,r2,92
    9984:	10c016c4 	addi	r3,r2,91
    9988:	294b883a 	add	r5,r5,r5
    998c:	294b883a 	add	r5,r5,r5
    9990:	294b883a 	add	r5,r5,r5
    9994:	994b883a 	add	r5,r19,r5
    9998:	28800017 	ldw	r2,0(r5)
    999c:	01800074 	movhi	r6,1
    99a0:	297ffe04 	addi	r5,r5,-8
    99a4:	31b25004 	addi	r6,r6,-14016
    99a8:	28806526 	beq	r5,r2,9b40 <_malloc_r+0x6d8>
    99ac:	01bfff04 	movi	r6,-4
    99b0:	10c00117 	ldw	r3,4(r2)
    99b4:	1986703a 	and	r3,r3,r6
    99b8:	38c0022e 	bgeu	r7,r3,99c4 <_malloc_r+0x55c>
    99bc:	10800217 	ldw	r2,8(r2)
    99c0:	28bffb1e 	bne	r5,r2,99b0 <_malloc_r+0x548>
    99c4:	11400317 	ldw	r5,12(r2)
    99c8:	98c00117 	ldw	r3,4(r19)
    99cc:	81400315 	stw	r5,12(r16)
    99d0:	80800215 	stw	r2,8(r16)
    99d4:	2c000215 	stw	r16,8(r5)
    99d8:	14000315 	stw	r16,12(r2)
    99dc:	003ef806 	br	95c0 <_malloc_r+0x158>
    99e0:	88c00054 	ori	r3,r17,1
    99e4:	80c00115 	stw	r3,4(r16)
    99e8:	8463883a 	add	r17,r16,r17
    99ec:	34400515 	stw	r17,20(r6)
    99f0:	34400415 	stw	r17,16(r6)
    99f4:	10c00054 	ori	r3,r2,1
    99f8:	8a000315 	stw	r8,12(r17)
    99fc:	8a000215 	stw	r8,8(r17)
    9a00:	88c00115 	stw	r3,4(r17)
    9a04:	88a3883a 	add	r17,r17,r2
    9a08:	88800015 	stw	r2,0(r17)
    9a0c:	9009883a 	mov	r4,r18
    9a10:	000b1b40 	call	b1b4 <__malloc_unlock>
    9a14:	80800204 	addi	r2,r16,8
    9a18:	003f3c06 	br	970c <_malloc_r+0x2a4>
    9a1c:	30c00117 	ldw	r3,4(r6)
    9a20:	003ee706 	br	95c0 <_malloc_r+0x158>
    9a24:	5ac00044 	addi	r11,r11,1
    9a28:	588000cc 	andi	r2,r11,3
    9a2c:	31800204 	addi	r6,r6,8
    9a30:	103efd1e 	bne	r2,zero,9628 <_malloc_r+0x1c0>
    9a34:	00002406 	br	9ac8 <_malloc_r+0x660>
    9a38:	14000317 	ldw	r16,12(r2)
    9a3c:	143f251e 	bne	r2,r16,96d4 <_malloc_r+0x26c>
    9a40:	21000084 	addi	r4,r4,2
    9a44:	003ebc06 	br	9538 <_malloc_r+0xd0>
    9a48:	8085883a 	add	r2,r16,r2
    9a4c:	10c00117 	ldw	r3,4(r2)
    9a50:	81000317 	ldw	r4,12(r16)
    9a54:	81400217 	ldw	r5,8(r16)
    9a58:	18c00054 	ori	r3,r3,1
    9a5c:	10c00115 	stw	r3,4(r2)
    9a60:	29000315 	stw	r4,12(r5)
    9a64:	21400215 	stw	r5,8(r4)
    9a68:	9009883a 	mov	r4,r18
    9a6c:	000b1b40 	call	b1b4 <__malloc_unlock>
    9a70:	80800204 	addi	r2,r16,8
    9a74:	003f2506 	br	970c <_malloc_r+0x2a4>
    9a78:	12001704 	addi	r8,r2,92
    9a7c:	11c016c4 	addi	r7,r2,91
    9a80:	4209883a 	add	r4,r8,r8
    9a84:	003e9606 	br	94e0 <_malloc_r+0x78>
    9a88:	3804d1ba 	srli	r2,r7,6
    9a8c:	11400e44 	addi	r5,r2,57
    9a90:	10c00e04 	addi	r3,r2,56
    9a94:	294b883a 	add	r5,r5,r5
    9a98:	003fbc06 	br	998c <_malloc_r+0x524>
    9a9c:	84ff5926 	beq	r16,r19,9804 <_malloc_r+0x39c>
    9aa0:	00800074 	movhi	r2,1
    9aa4:	10b25004 	addi	r2,r2,-14016
    9aa8:	14000217 	ldw	r16,8(r2)
    9aac:	00bfff04 	movi	r2,-4
    9ab0:	80c00117 	ldw	r3,4(r16)
    9ab4:	1886703a 	and	r3,r3,r2
    9ab8:	003f9106 	br	9900 <_malloc_r+0x498>
    9abc:	60800217 	ldw	r2,8(r12)
    9ac0:	213fffc4 	addi	r4,r4,-1
    9ac4:	1300651e 	bne	r2,r12,9c5c <_malloc_r+0x7f4>
    9ac8:	208000cc 	andi	r2,r4,3
    9acc:	633ffe04 	addi	r12,r12,-8
    9ad0:	103ffa1e 	bne	r2,zero,9abc <_malloc_r+0x654>
    9ad4:	98800117 	ldw	r2,4(r19)
    9ad8:	0146303a 	nor	r3,zero,r5
    9adc:	1884703a 	and	r2,r3,r2
    9ae0:	98800115 	stw	r2,4(r19)
    9ae4:	294b883a 	add	r5,r5,r5
    9ae8:	117f2836 	bltu	r2,r5,978c <_malloc_r+0x324>
    9aec:	283f2726 	beq	r5,zero,978c <_malloc_r+0x324>
    9af0:	2886703a 	and	r3,r5,r2
    9af4:	5809883a 	mov	r4,r11
    9af8:	183ec31e 	bne	r3,zero,9608 <_malloc_r+0x1a0>
    9afc:	294b883a 	add	r5,r5,r5
    9b00:	2886703a 	and	r3,r5,r2
    9b04:	21000104 	addi	r4,r4,4
    9b08:	183ffc26 	beq	r3,zero,9afc <_malloc_r+0x694>
    9b0c:	003ebe06 	br	9608 <_malloc_r+0x1a0>
    9b10:	00c05504 	movi	r3,340
    9b14:	18801236 	bltu	r3,r2,9b60 <_malloc_r+0x6f8>
    9b18:	8804d3fa 	srli	r2,r17,15
    9b1c:	12001e04 	addi	r8,r2,120
    9b20:	11c01dc4 	addi	r7,r2,119
    9b24:	4209883a 	add	r4,r8,r8
    9b28:	003e6d06 	br	94e0 <_malloc_r+0x78>
    9b2c:	00c40004 	movi	r3,4096
    9b30:	003f4606 	br	984c <_malloc_r+0x3e4>
    9b34:	00800044 	movi	r2,1
    9b38:	a0800115 	stw	r2,4(r20)
    9b3c:	003f7406 	br	9910 <_malloc_r+0x4a8>
    9b40:	1805d0ba 	srai	r2,r3,2
    9b44:	01c00044 	movi	r7,1
    9b48:	30c00117 	ldw	r3,4(r6)
    9b4c:	388e983a 	sll	r7,r7,r2
    9b50:	2805883a 	mov	r2,r5
    9b54:	38c6b03a 	or	r3,r7,r3
    9b58:	30c00115 	stw	r3,4(r6)
    9b5c:	003f9b06 	br	99cc <_malloc_r+0x564>
    9b60:	00c15504 	movi	r3,1364
    9b64:	18801a36 	bltu	r3,r2,9bd0 <_malloc_r+0x768>
    9b68:	8804d4ba 	srli	r2,r17,18
    9b6c:	12001f44 	addi	r8,r2,125
    9b70:	11c01f04 	addi	r7,r2,124
    9b74:	4209883a 	add	r4,r8,r8
    9b78:	003e5906 	br	94e0 <_malloc_r+0x78>
    9b7c:	ad400404 	addi	r21,r21,16
    9b80:	003f1706 	br	97e0 <_malloc_r+0x378>
    9b84:	00c01504 	movi	r3,84
    9b88:	18802336 	bltu	r3,r2,9c18 <_malloc_r+0x7b0>
    9b8c:	3804d33a 	srli	r2,r7,12
    9b90:	11401bc4 	addi	r5,r2,111
    9b94:	10c01b84 	addi	r3,r2,110
    9b98:	294b883a 	add	r5,r5,r5
    9b9c:	003f7b06 	br	998c <_malloc_r+0x524>
    9ba0:	9c000217 	ldw	r16,8(r19)
    9ba4:	00bfff04 	movi	r2,-4
    9ba8:	80c00117 	ldw	r3,4(r16)
    9bac:	1886703a 	and	r3,r3,r2
    9bb0:	003f5306 	br	9900 <_malloc_r+0x498>
    9bb4:	3083ffcc 	andi	r2,r6,4095
    9bb8:	103f181e 	bne	r2,zero,981c <_malloc_r+0x3b4>
    9bbc:	99000217 	ldw	r4,8(r19)
    9bc0:	b545883a 	add	r2,r22,r21
    9bc4:	10800054 	ori	r2,r2,1
    9bc8:	20800115 	stw	r2,4(r4)
    9bcc:	003f3e06 	br	98c8 <_malloc_r+0x460>
    9bd0:	01003f84 	movi	r4,254
    9bd4:	02001fc4 	movi	r8,127
    9bd8:	01c01f84 	movi	r7,126
    9bdc:	003e4006 	br	94e0 <_malloc_r+0x78>
    9be0:	00800074 	movhi	r2,1
    9be4:	10b3d504 	addi	r2,r2,-12460
    9be8:	15000015 	stw	r20,0(r2)
    9bec:	003f1106 	br	9834 <_malloc_r+0x3cc>
    9bf0:	00800044 	movi	r2,1
    9bf4:	002b883a 	mov	r21,zero
    9bf8:	003f1f06 	br	9878 <_malloc_r+0x410>
    9bfc:	81400204 	addi	r5,r16,8
    9c00:	9009883a 	mov	r4,r18
    9c04:	000a6a00 	call	a6a0 <_free_r>
    9c08:	00800074 	movhi	r2,1
    9c0c:	10b68904 	addi	r2,r2,-9692
    9c10:	10c00017 	ldw	r3,0(r2)
    9c14:	003f2c06 	br	98c8 <_malloc_r+0x460>
    9c18:	00c05504 	movi	r3,340
    9c1c:	18800536 	bltu	r3,r2,9c34 <_malloc_r+0x7cc>
    9c20:	3804d3fa 	srli	r2,r7,15
    9c24:	11401e04 	addi	r5,r2,120
    9c28:	10c01dc4 	addi	r3,r2,119
    9c2c:	294b883a 	add	r5,r5,r5
    9c30:	003f5606 	br	998c <_malloc_r+0x524>
    9c34:	00c15504 	movi	r3,1364
    9c38:	18800536 	bltu	r3,r2,9c50 <_malloc_r+0x7e8>
    9c3c:	3804d4ba 	srli	r2,r7,18
    9c40:	11401f44 	addi	r5,r2,125
    9c44:	10c01f04 	addi	r3,r2,124
    9c48:	294b883a 	add	r5,r5,r5
    9c4c:	003f4f06 	br	998c <_malloc_r+0x524>
    9c50:	01403f84 	movi	r5,254
    9c54:	00c01f84 	movi	r3,126
    9c58:	003f4c06 	br	998c <_malloc_r+0x524>
    9c5c:	98800117 	ldw	r2,4(r19)
    9c60:	003fa006 	br	9ae4 <_malloc_r+0x67c>
    9c64:	8808d0fa 	srli	r4,r17,3
    9c68:	20800044 	addi	r2,r4,1
    9c6c:	1085883a 	add	r2,r2,r2
    9c70:	003e9006 	br	96b4 <_malloc_r+0x24c>

00009c74 <memset>:
    9c74:	20c000cc 	andi	r3,r4,3
    9c78:	2005883a 	mov	r2,r4
    9c7c:	18004426 	beq	r3,zero,9d90 <memset+0x11c>
    9c80:	31ffffc4 	addi	r7,r6,-1
    9c84:	30004026 	beq	r6,zero,9d88 <memset+0x114>
    9c88:	2813883a 	mov	r9,r5
    9c8c:	200d883a 	mov	r6,r4
    9c90:	2007883a 	mov	r3,r4
    9c94:	00000406 	br	9ca8 <memset+0x34>
    9c98:	3a3fffc4 	addi	r8,r7,-1
    9c9c:	31800044 	addi	r6,r6,1
    9ca0:	38003926 	beq	r7,zero,9d88 <memset+0x114>
    9ca4:	400f883a 	mov	r7,r8
    9ca8:	18c00044 	addi	r3,r3,1
    9cac:	32400005 	stb	r9,0(r6)
    9cb0:	1a0000cc 	andi	r8,r3,3
    9cb4:	403ff81e 	bne	r8,zero,9c98 <memset+0x24>
    9cb8:	010000c4 	movi	r4,3
    9cbc:	21c02d2e 	bgeu	r4,r7,9d74 <memset+0x100>
    9cc0:	29003fcc 	andi	r4,r5,255
    9cc4:	200c923a 	slli	r6,r4,8
    9cc8:	3108b03a 	or	r4,r6,r4
    9ccc:	200c943a 	slli	r6,r4,16
    9cd0:	218cb03a 	or	r6,r4,r6
    9cd4:	010003c4 	movi	r4,15
    9cd8:	21c0182e 	bgeu	r4,r7,9d3c <memset+0xc8>
    9cdc:	3b3ffc04 	addi	r12,r7,-16
    9ce0:	6018d13a 	srli	r12,r12,4
    9ce4:	1a000104 	addi	r8,r3,4
    9ce8:	1ac00204 	addi	r11,r3,8
    9cec:	6008913a 	slli	r4,r12,4
    9cf0:	1a800304 	addi	r10,r3,12
    9cf4:	1813883a 	mov	r9,r3
    9cf8:	21000504 	addi	r4,r4,20
    9cfc:	1909883a 	add	r4,r3,r4
    9d00:	49800015 	stw	r6,0(r9)
    9d04:	41800015 	stw	r6,0(r8)
    9d08:	59800015 	stw	r6,0(r11)
    9d0c:	51800015 	stw	r6,0(r10)
    9d10:	42000404 	addi	r8,r8,16
    9d14:	4a400404 	addi	r9,r9,16
    9d18:	5ac00404 	addi	r11,r11,16
    9d1c:	52800404 	addi	r10,r10,16
    9d20:	413ff71e 	bne	r8,r4,9d00 <memset+0x8c>
    9d24:	63000044 	addi	r12,r12,1
    9d28:	6018913a 	slli	r12,r12,4
    9d2c:	39c003cc 	andi	r7,r7,15
    9d30:	010000c4 	movi	r4,3
    9d34:	1b07883a 	add	r3,r3,r12
    9d38:	21c00e2e 	bgeu	r4,r7,9d74 <memset+0x100>
    9d3c:	1813883a 	mov	r9,r3
    9d40:	3811883a 	mov	r8,r7
    9d44:	010000c4 	movi	r4,3
    9d48:	49800015 	stw	r6,0(r9)
    9d4c:	423fff04 	addi	r8,r8,-4
    9d50:	4a400104 	addi	r9,r9,4
    9d54:	223ffc36 	bltu	r4,r8,9d48 <memset+0xd4>
    9d58:	393fff04 	addi	r4,r7,-4
    9d5c:	2008d0ba 	srli	r4,r4,2
    9d60:	39c000cc 	andi	r7,r7,3
    9d64:	21000044 	addi	r4,r4,1
    9d68:	2109883a 	add	r4,r4,r4
    9d6c:	2109883a 	add	r4,r4,r4
    9d70:	1907883a 	add	r3,r3,r4
    9d74:	38000526 	beq	r7,zero,9d8c <memset+0x118>
    9d78:	19cf883a 	add	r7,r3,r7
    9d7c:	19400005 	stb	r5,0(r3)
    9d80:	18c00044 	addi	r3,r3,1
    9d84:	38fffd1e 	bne	r7,r3,9d7c <memset+0x108>
    9d88:	f800283a 	ret
    9d8c:	f800283a 	ret
    9d90:	2007883a 	mov	r3,r4
    9d94:	300f883a 	mov	r7,r6
    9d98:	003fc706 	br	9cb8 <memset+0x44>

00009d9c <lflush>:
    9d9c:	2080030b 	ldhu	r2,12(r4)
    9da0:	00c00244 	movi	r3,9
    9da4:	1080024c 	andi	r2,r2,9
    9da8:	10c00226 	beq	r2,r3,9db4 <lflush+0x18>
    9dac:	0005883a 	mov	r2,zero
    9db0:	f800283a 	ret
    9db4:	000a54c1 	jmpi	a54c <fflush>

00009db8 <__srefill_r>:
    9db8:	defffc04 	addi	sp,sp,-16
    9dbc:	dc400115 	stw	r17,4(sp)
    9dc0:	dc000015 	stw	r16,0(sp)
    9dc4:	dfc00315 	stw	ra,12(sp)
    9dc8:	dc800215 	stw	r18,8(sp)
    9dcc:	2023883a 	mov	r17,r4
    9dd0:	2821883a 	mov	r16,r5
    9dd4:	20000226 	beq	r4,zero,9de0 <__srefill_r+0x28>
    9dd8:	20800e17 	ldw	r2,56(r4)
    9ddc:	10003c26 	beq	r2,zero,9ed0 <__srefill_r+0x118>
    9de0:	80c0030b 	ldhu	r3,12(r16)
    9de4:	1908000c 	andi	r4,r3,8192
    9de8:	1805883a 	mov	r2,r3
    9dec:	2000071e 	bne	r4,zero,9e0c <__srefill_r+0x54>
    9df0:	81001917 	ldw	r4,100(r16)
    9df4:	18880014 	ori	r2,r3,8192
    9df8:	00f7ffc4 	movi	r3,-8193
    9dfc:	20c8703a 	and	r4,r4,r3
    9e00:	8080030d 	sth	r2,12(r16)
    9e04:	1007883a 	mov	r3,r2
    9e08:	81001915 	stw	r4,100(r16)
    9e0c:	80000115 	stw	zero,4(r16)
    9e10:	1100080c 	andi	r4,r2,32
    9e14:	2000571e 	bne	r4,zero,9f74 <__srefill_r+0x1bc>
    9e18:	1100010c 	andi	r4,r2,4
    9e1c:	20001f26 	beq	r4,zero,9e9c <__srefill_r+0xe4>
    9e20:	81400c17 	ldw	r5,48(r16)
    9e24:	28000826 	beq	r5,zero,9e48 <__srefill_r+0x90>
    9e28:	80801004 	addi	r2,r16,64
    9e2c:	28800226 	beq	r5,r2,9e38 <__srefill_r+0x80>
    9e30:	8809883a 	mov	r4,r17
    9e34:	000a6a00 	call	a6a0 <_free_r>
    9e38:	80800f17 	ldw	r2,60(r16)
    9e3c:	80000c15 	stw	zero,48(r16)
    9e40:	80800115 	stw	r2,4(r16)
    9e44:	1000391e 	bne	r2,zero,9f2c <__srefill_r+0x174>
    9e48:	80800417 	ldw	r2,16(r16)
    9e4c:	10004b26 	beq	r2,zero,9f7c <__srefill_r+0x1c4>
    9e50:	8480030b 	ldhu	r18,12(r16)
    9e54:	908000cc 	andi	r2,r18,3
    9e58:	10001f1e 	bne	r2,zero,9ed8 <__srefill_r+0x120>
    9e5c:	81800417 	ldw	r6,16(r16)
    9e60:	80800817 	ldw	r2,32(r16)
    9e64:	81c00517 	ldw	r7,20(r16)
    9e68:	81400717 	ldw	r5,28(r16)
    9e6c:	81800015 	stw	r6,0(r16)
    9e70:	8809883a 	mov	r4,r17
    9e74:	103ee83a 	callr	r2
    9e78:	80800115 	stw	r2,4(r16)
    9e7c:	00800e0e 	bge	zero,r2,9eb8 <__srefill_r+0x100>
    9e80:	0005883a 	mov	r2,zero
    9e84:	dfc00317 	ldw	ra,12(sp)
    9e88:	dc800217 	ldw	r18,8(sp)
    9e8c:	dc400117 	ldw	r17,4(sp)
    9e90:	dc000017 	ldw	r16,0(sp)
    9e94:	dec00404 	addi	sp,sp,16
    9e98:	f800283a 	ret
    9e9c:	1100040c 	andi	r4,r2,16
    9ea0:	20003026 	beq	r4,zero,9f64 <__srefill_r+0x1ac>
    9ea4:	1080020c 	andi	r2,r2,8
    9ea8:	1000241e 	bne	r2,zero,9f3c <__srefill_r+0x184>
    9eac:	18c00114 	ori	r3,r3,4
    9eb0:	80c0030d 	sth	r3,12(r16)
    9eb4:	003fe406 	br	9e48 <__srefill_r+0x90>
    9eb8:	80c0030b 	ldhu	r3,12(r16)
    9ebc:	1000161e 	bne	r2,zero,9f18 <__srefill_r+0x160>
    9ec0:	18c00814 	ori	r3,r3,32
    9ec4:	00bfffc4 	movi	r2,-1
    9ec8:	80c0030d 	sth	r3,12(r16)
    9ecc:	003fed06 	br	9e84 <__srefill_r+0xcc>
    9ed0:	00092900 	call	9290 <__sinit>
    9ed4:	003fc206 	br	9de0 <__srefill_r+0x28>
    9ed8:	00800074 	movhi	r2,1
    9edc:	10b3d304 	addi	r2,r2,-12468
    9ee0:	11000017 	ldw	r4,0(r2)
    9ee4:	01400074 	movhi	r5,1
    9ee8:	00800044 	movi	r2,1
    9eec:	29676704 	addi	r5,r5,-25188
    9ef0:	8080030d 	sth	r2,12(r16)
    9ef4:	00092e00 	call	92e0 <_fwalk>
    9ef8:	00800244 	movi	r2,9
    9efc:	8480030d 	sth	r18,12(r16)
    9f00:	9480024c 	andi	r18,r18,9
    9f04:	90bfd51e 	bne	r18,r2,9e5c <__srefill_r+0xa4>
    9f08:	800b883a 	mov	r5,r16
    9f0c:	8809883a 	mov	r4,r17
    9f10:	000a2d40 	call	a2d4 <__sflush_r>
    9f14:	003fd106 	br	9e5c <__srefill_r+0xa4>
    9f18:	18c01014 	ori	r3,r3,64
    9f1c:	80000115 	stw	zero,4(r16)
    9f20:	00bfffc4 	movi	r2,-1
    9f24:	80c0030d 	sth	r3,12(r16)
    9f28:	003fd606 	br	9e84 <__srefill_r+0xcc>
    9f2c:	80c00e17 	ldw	r3,56(r16)
    9f30:	0005883a 	mov	r2,zero
    9f34:	80c00015 	stw	r3,0(r16)
    9f38:	003fd206 	br	9e84 <__srefill_r+0xcc>
    9f3c:	800b883a 	mov	r5,r16
    9f40:	8809883a 	mov	r4,r17
    9f44:	000a4f00 	call	a4f0 <_fflush_r>
    9f48:	10000a1e 	bne	r2,zero,9f74 <__srefill_r+0x1bc>
    9f4c:	8080030b 	ldhu	r2,12(r16)
    9f50:	00fffdc4 	movi	r3,-9
    9f54:	80000215 	stw	zero,8(r16)
    9f58:	1886703a 	and	r3,r3,r2
    9f5c:	80000615 	stw	zero,24(r16)
    9f60:	003fd206 	br	9eac <__srefill_r+0xf4>
    9f64:	00800244 	movi	r2,9
    9f68:	88800015 	stw	r2,0(r17)
    9f6c:	18c01014 	ori	r3,r3,64
    9f70:	80c0030d 	sth	r3,12(r16)
    9f74:	00bfffc4 	movi	r2,-1
    9f78:	003fc206 	br	9e84 <__srefill_r+0xcc>
    9f7c:	800b883a 	mov	r5,r16
    9f80:	8809883a 	mov	r4,r17
    9f84:	000aa100 	call	aa10 <__smakebuf_r>
    9f88:	003fb106 	br	9e50 <__srefill_r+0x98>

00009f8c <_sbrk_r>:
    9f8c:	defffd04 	addi	sp,sp,-12
    9f90:	dc000015 	stw	r16,0(sp)
    9f94:	04000074 	movhi	r16,1
    9f98:	dc400115 	stw	r17,4(sp)
    9f9c:	84367e04 	addi	r16,r16,-9736
    9fa0:	2023883a 	mov	r17,r4
    9fa4:	2809883a 	mov	r4,r5
    9fa8:	dfc00215 	stw	ra,8(sp)
    9fac:	80000015 	stw	zero,0(r16)
    9fb0:	000b34c0 	call	b34c <sbrk>
    9fb4:	00ffffc4 	movi	r3,-1
    9fb8:	10c00526 	beq	r2,r3,9fd0 <_sbrk_r+0x44>
    9fbc:	dfc00217 	ldw	ra,8(sp)
    9fc0:	dc400117 	ldw	r17,4(sp)
    9fc4:	dc000017 	ldw	r16,0(sp)
    9fc8:	dec00304 	addi	sp,sp,12
    9fcc:	f800283a 	ret
    9fd0:	80c00017 	ldw	r3,0(r16)
    9fd4:	183ff926 	beq	r3,zero,9fbc <_sbrk_r+0x30>
    9fd8:	88c00015 	stw	r3,0(r17)
    9fdc:	003ff706 	br	9fbc <_sbrk_r+0x30>

00009fe0 <__sread>:
    9fe0:	defffe04 	addi	sp,sp,-8
    9fe4:	dc000015 	stw	r16,0(sp)
    9fe8:	2821883a 	mov	r16,r5
    9fec:	2940038f 	ldh	r5,14(r5)
    9ff0:	dfc00115 	stw	ra,4(sp)
    9ff4:	000abcc0 	call	abcc <_read_r>
    9ff8:	10000716 	blt	r2,zero,a018 <__sread+0x38>
    9ffc:	80c01417 	ldw	r3,80(r16)
    a000:	1887883a 	add	r3,r3,r2
    a004:	80c01415 	stw	r3,80(r16)
    a008:	dfc00117 	ldw	ra,4(sp)
    a00c:	dc000017 	ldw	r16,0(sp)
    a010:	dec00204 	addi	sp,sp,8
    a014:	f800283a 	ret
    a018:	80c0030b 	ldhu	r3,12(r16)
    a01c:	18fbffcc 	andi	r3,r3,61439
    a020:	80c0030d 	sth	r3,12(r16)
    a024:	dfc00117 	ldw	ra,4(sp)
    a028:	dc000017 	ldw	r16,0(sp)
    a02c:	dec00204 	addi	sp,sp,8
    a030:	f800283a 	ret

0000a034 <__seofread>:
    a034:	0005883a 	mov	r2,zero
    a038:	f800283a 	ret

0000a03c <__swrite>:
    a03c:	2880030b 	ldhu	r2,12(r5)
    a040:	defffb04 	addi	sp,sp,-20
    a044:	dcc00315 	stw	r19,12(sp)
    a048:	dc800215 	stw	r18,8(sp)
    a04c:	dc400115 	stw	r17,4(sp)
    a050:	dc000015 	stw	r16,0(sp)
    a054:	dfc00415 	stw	ra,16(sp)
    a058:	10c0400c 	andi	r3,r2,256
    a05c:	2821883a 	mov	r16,r5
    a060:	2023883a 	mov	r17,r4
    a064:	3025883a 	mov	r18,r6
    a068:	3827883a 	mov	r19,r7
    a06c:	18000526 	beq	r3,zero,a084 <__swrite+0x48>
    a070:	2940038f 	ldh	r5,14(r5)
    a074:	01c00084 	movi	r7,2
    a078:	000d883a 	mov	r6,zero
    a07c:	000a9b00 	call	a9b0 <_lseek_r>
    a080:	8080030b 	ldhu	r2,12(r16)
    a084:	8140038f 	ldh	r5,14(r16)
    a088:	10bbffcc 	andi	r2,r2,61439
    a08c:	980f883a 	mov	r7,r19
    a090:	900d883a 	mov	r6,r18
    a094:	8809883a 	mov	r4,r17
    a098:	8080030d 	sth	r2,12(r16)
    a09c:	dfc00417 	ldw	ra,16(sp)
    a0a0:	dcc00317 	ldw	r19,12(sp)
    a0a4:	dc800217 	ldw	r18,8(sp)
    a0a8:	dc400117 	ldw	r17,4(sp)
    a0ac:	dc000017 	ldw	r16,0(sp)
    a0b0:	dec00504 	addi	sp,sp,20
    a0b4:	000a11c1 	jmpi	a11c <_write_r>

0000a0b8 <__sseek>:
    a0b8:	defffe04 	addi	sp,sp,-8
    a0bc:	dc000015 	stw	r16,0(sp)
    a0c0:	2821883a 	mov	r16,r5
    a0c4:	2940038f 	ldh	r5,14(r5)
    a0c8:	dfc00115 	stw	ra,4(sp)
    a0cc:	000a9b00 	call	a9b0 <_lseek_r>
    a0d0:	00ffffc4 	movi	r3,-1
    a0d4:	10c00826 	beq	r2,r3,a0f8 <__sseek+0x40>
    a0d8:	80c0030b 	ldhu	r3,12(r16)
    a0dc:	80801415 	stw	r2,80(r16)
    a0e0:	18c40014 	ori	r3,r3,4096
    a0e4:	80c0030d 	sth	r3,12(r16)
    a0e8:	dfc00117 	ldw	ra,4(sp)
    a0ec:	dc000017 	ldw	r16,0(sp)
    a0f0:	dec00204 	addi	sp,sp,8
    a0f4:	f800283a 	ret
    a0f8:	80c0030b 	ldhu	r3,12(r16)
    a0fc:	18fbffcc 	andi	r3,r3,61439
    a100:	80c0030d 	sth	r3,12(r16)
    a104:	dfc00117 	ldw	ra,4(sp)
    a108:	dc000017 	ldw	r16,0(sp)
    a10c:	dec00204 	addi	sp,sp,8
    a110:	f800283a 	ret

0000a114 <__sclose>:
    a114:	2940038f 	ldh	r5,14(r5)
    a118:	000a17c1 	jmpi	a17c <_close_r>

0000a11c <_write_r>:
    a11c:	defffd04 	addi	sp,sp,-12
    a120:	2805883a 	mov	r2,r5
    a124:	dc000015 	stw	r16,0(sp)
    a128:	04000074 	movhi	r16,1
    a12c:	dc400115 	stw	r17,4(sp)
    a130:	300b883a 	mov	r5,r6
    a134:	84367e04 	addi	r16,r16,-9736
    a138:	2023883a 	mov	r17,r4
    a13c:	380d883a 	mov	r6,r7
    a140:	1009883a 	mov	r4,r2
    a144:	dfc00215 	stw	ra,8(sp)
    a148:	80000015 	stw	zero,0(r16)
    a14c:	000b3980 	call	b398 <write>
    a150:	00ffffc4 	movi	r3,-1
    a154:	10c00526 	beq	r2,r3,a16c <_write_r+0x50>
    a158:	dfc00217 	ldw	ra,8(sp)
    a15c:	dc400117 	ldw	r17,4(sp)
    a160:	dc000017 	ldw	r16,0(sp)
    a164:	dec00304 	addi	sp,sp,12
    a168:	f800283a 	ret
    a16c:	80c00017 	ldw	r3,0(r16)
    a170:	183ff926 	beq	r3,zero,a158 <_write_r+0x3c>
    a174:	88c00015 	stw	r3,0(r17)
    a178:	003ff706 	br	a158 <_write_r+0x3c>

0000a17c <_close_r>:
    a17c:	defffd04 	addi	sp,sp,-12
    a180:	dc000015 	stw	r16,0(sp)
    a184:	04000074 	movhi	r16,1
    a188:	dc400115 	stw	r17,4(sp)
    a18c:	84367e04 	addi	r16,r16,-9736
    a190:	2023883a 	mov	r17,r4
    a194:	2809883a 	mov	r4,r5
    a198:	dfc00215 	stw	ra,8(sp)
    a19c:	80000015 	stw	zero,0(r16)
    a1a0:	000ad040 	call	ad04 <close>
    a1a4:	00ffffc4 	movi	r3,-1
    a1a8:	10c00526 	beq	r2,r3,a1c0 <_close_r+0x44>
    a1ac:	dfc00217 	ldw	ra,8(sp)
    a1b0:	dc400117 	ldw	r17,4(sp)
    a1b4:	dc000017 	ldw	r16,0(sp)
    a1b8:	dec00304 	addi	sp,sp,12
    a1bc:	f800283a 	ret
    a1c0:	80c00017 	ldw	r3,0(r16)
    a1c4:	183ff926 	beq	r3,zero,a1ac <_close_r+0x30>
    a1c8:	88c00015 	stw	r3,0(r17)
    a1cc:	003ff706 	br	a1ac <_close_r+0x30>

0000a1d0 <_fclose_r>:
    a1d0:	28003926 	beq	r5,zero,a2b8 <_fclose_r+0xe8>
    a1d4:	defffc04 	addi	sp,sp,-16
    a1d8:	dc400115 	stw	r17,4(sp)
    a1dc:	dc000015 	stw	r16,0(sp)
    a1e0:	dfc00315 	stw	ra,12(sp)
    a1e4:	dc800215 	stw	r18,8(sp)
    a1e8:	2023883a 	mov	r17,r4
    a1ec:	2821883a 	mov	r16,r5
    a1f0:	20000226 	beq	r4,zero,a1fc <_fclose_r+0x2c>
    a1f4:	20800e17 	ldw	r2,56(r4)
    a1f8:	10002726 	beq	r2,zero,a298 <_fclose_r+0xc8>
    a1fc:	8080030f 	ldh	r2,12(r16)
    a200:	1000071e 	bne	r2,zero,a220 <_fclose_r+0x50>
    a204:	0005883a 	mov	r2,zero
    a208:	dfc00317 	ldw	ra,12(sp)
    a20c:	dc800217 	ldw	r18,8(sp)
    a210:	dc400117 	ldw	r17,4(sp)
    a214:	dc000017 	ldw	r16,0(sp)
    a218:	dec00404 	addi	sp,sp,16
    a21c:	f800283a 	ret
    a220:	800b883a 	mov	r5,r16
    a224:	8809883a 	mov	r4,r17
    a228:	000a2d40 	call	a2d4 <__sflush_r>
    a22c:	1025883a 	mov	r18,r2
    a230:	80800b17 	ldw	r2,44(r16)
    a234:	10000426 	beq	r2,zero,a248 <_fclose_r+0x78>
    a238:	81400717 	ldw	r5,28(r16)
    a23c:	8809883a 	mov	r4,r17
    a240:	103ee83a 	callr	r2
    a244:	10001616 	blt	r2,zero,a2a0 <_fclose_r+0xd0>
    a248:	8080030b 	ldhu	r2,12(r16)
    a24c:	1080200c 	andi	r2,r2,128
    a250:	1000151e 	bne	r2,zero,a2a8 <_fclose_r+0xd8>
    a254:	81400c17 	ldw	r5,48(r16)
    a258:	28000526 	beq	r5,zero,a270 <_fclose_r+0xa0>
    a25c:	80801004 	addi	r2,r16,64
    a260:	28800226 	beq	r5,r2,a26c <_fclose_r+0x9c>
    a264:	8809883a 	mov	r4,r17
    a268:	000a6a00 	call	a6a0 <_free_r>
    a26c:	80000c15 	stw	zero,48(r16)
    a270:	81401117 	ldw	r5,68(r16)
    a274:	28000326 	beq	r5,zero,a284 <_fclose_r+0xb4>
    a278:	8809883a 	mov	r4,r17
    a27c:	000a6a00 	call	a6a0 <_free_r>
    a280:	80001115 	stw	zero,68(r16)
    a284:	00092a00 	call	92a0 <__sfp_lock_acquire>
    a288:	8000030d 	sth	zero,12(r16)
    a28c:	00092a40 	call	92a4 <__sfp_lock_release>
    a290:	9005883a 	mov	r2,r18
    a294:	003fdc06 	br	a208 <_fclose_r+0x38>
    a298:	00092900 	call	9290 <__sinit>
    a29c:	003fd706 	br	a1fc <_fclose_r+0x2c>
    a2a0:	04bfffc4 	movi	r18,-1
    a2a4:	003fe806 	br	a248 <_fclose_r+0x78>
    a2a8:	81400417 	ldw	r5,16(r16)
    a2ac:	8809883a 	mov	r4,r17
    a2b0:	000a6a00 	call	a6a0 <_free_r>
    a2b4:	003fe706 	br	a254 <_fclose_r+0x84>
    a2b8:	0005883a 	mov	r2,zero
    a2bc:	f800283a 	ret

0000a2c0 <fclose>:
    a2c0:	00800074 	movhi	r2,1
    a2c4:	10b3d404 	addi	r2,r2,-12464
    a2c8:	200b883a 	mov	r5,r4
    a2cc:	11000017 	ldw	r4,0(r2)
    a2d0:	000a1d01 	jmpi	a1d0 <_fclose_r>

0000a2d4 <__sflush_r>:
    a2d4:	2880030b 	ldhu	r2,12(r5)
    a2d8:	defffb04 	addi	sp,sp,-20
    a2dc:	dcc00315 	stw	r19,12(sp)
    a2e0:	dc400115 	stw	r17,4(sp)
    a2e4:	dfc00415 	stw	ra,16(sp)
    a2e8:	dc800215 	stw	r18,8(sp)
    a2ec:	dc000015 	stw	r16,0(sp)
    a2f0:	10c0020c 	andi	r3,r2,8
    a2f4:	2823883a 	mov	r17,r5
    a2f8:	2027883a 	mov	r19,r4
    a2fc:	1800311e 	bne	r3,zero,a3c4 <__sflush_r+0xf0>
    a300:	28c00117 	ldw	r3,4(r5)
    a304:	10820014 	ori	r2,r2,2048
    a308:	2880030d 	sth	r2,12(r5)
    a30c:	00c04b0e 	bge	zero,r3,a43c <__sflush_r+0x168>
    a310:	8a000a17 	ldw	r8,40(r17)
    a314:	40002326 	beq	r8,zero,a3a4 <__sflush_r+0xd0>
    a318:	9c000017 	ldw	r16,0(r19)
    a31c:	10c4000c 	andi	r3,r2,4096
    a320:	98000015 	stw	zero,0(r19)
    a324:	18004826 	beq	r3,zero,a448 <__sflush_r+0x174>
    a328:	89801417 	ldw	r6,80(r17)
    a32c:	10c0010c 	andi	r3,r2,4
    a330:	18000626 	beq	r3,zero,a34c <__sflush_r+0x78>
    a334:	88c00117 	ldw	r3,4(r17)
    a338:	88800c17 	ldw	r2,48(r17)
    a33c:	30cdc83a 	sub	r6,r6,r3
    a340:	10000226 	beq	r2,zero,a34c <__sflush_r+0x78>
    a344:	88800f17 	ldw	r2,60(r17)
    a348:	308dc83a 	sub	r6,r6,r2
    a34c:	89400717 	ldw	r5,28(r17)
    a350:	000f883a 	mov	r7,zero
    a354:	9809883a 	mov	r4,r19
    a358:	403ee83a 	callr	r8
    a35c:	00ffffc4 	movi	r3,-1
    a360:	10c04426 	beq	r2,r3,a474 <__sflush_r+0x1a0>
    a364:	88c0030b 	ldhu	r3,12(r17)
    a368:	89000417 	ldw	r4,16(r17)
    a36c:	88000115 	stw	zero,4(r17)
    a370:	197dffcc 	andi	r5,r3,63487
    a374:	8940030d 	sth	r5,12(r17)
    a378:	89000015 	stw	r4,0(r17)
    a37c:	18c4000c 	andi	r3,r3,4096
    a380:	18002c1e 	bne	r3,zero,a434 <__sflush_r+0x160>
    a384:	89400c17 	ldw	r5,48(r17)
    a388:	9c000015 	stw	r16,0(r19)
    a38c:	28000526 	beq	r5,zero,a3a4 <__sflush_r+0xd0>
    a390:	88801004 	addi	r2,r17,64
    a394:	28800226 	beq	r5,r2,a3a0 <__sflush_r+0xcc>
    a398:	9809883a 	mov	r4,r19
    a39c:	000a6a00 	call	a6a0 <_free_r>
    a3a0:	88000c15 	stw	zero,48(r17)
    a3a4:	0005883a 	mov	r2,zero
    a3a8:	dfc00417 	ldw	ra,16(sp)
    a3ac:	dcc00317 	ldw	r19,12(sp)
    a3b0:	dc800217 	ldw	r18,8(sp)
    a3b4:	dc400117 	ldw	r17,4(sp)
    a3b8:	dc000017 	ldw	r16,0(sp)
    a3bc:	dec00504 	addi	sp,sp,20
    a3c0:	f800283a 	ret
    a3c4:	2c800417 	ldw	r18,16(r5)
    a3c8:	903ff626 	beq	r18,zero,a3a4 <__sflush_r+0xd0>
    a3cc:	2c000017 	ldw	r16,0(r5)
    a3d0:	108000cc 	andi	r2,r2,3
    a3d4:	2c800015 	stw	r18,0(r5)
    a3d8:	84a1c83a 	sub	r16,r16,r18
    a3dc:	1000131e 	bne	r2,zero,a42c <__sflush_r+0x158>
    a3e0:	28800517 	ldw	r2,20(r5)
    a3e4:	88800215 	stw	r2,8(r17)
    a3e8:	04000316 	blt	zero,r16,a3f8 <__sflush_r+0x124>
    a3ec:	003fed06 	br	a3a4 <__sflush_r+0xd0>
    a3f0:	90a5883a 	add	r18,r18,r2
    a3f4:	043feb0e 	bge	zero,r16,a3a4 <__sflush_r+0xd0>
    a3f8:	88800917 	ldw	r2,36(r17)
    a3fc:	89400717 	ldw	r5,28(r17)
    a400:	800f883a 	mov	r7,r16
    a404:	900d883a 	mov	r6,r18
    a408:	9809883a 	mov	r4,r19
    a40c:	103ee83a 	callr	r2
    a410:	80a1c83a 	sub	r16,r16,r2
    a414:	00bff616 	blt	zero,r2,a3f0 <__sflush_r+0x11c>
    a418:	88c0030b 	ldhu	r3,12(r17)
    a41c:	00bfffc4 	movi	r2,-1
    a420:	18c01014 	ori	r3,r3,64
    a424:	88c0030d 	sth	r3,12(r17)
    a428:	003fdf06 	br	a3a8 <__sflush_r+0xd4>
    a42c:	0005883a 	mov	r2,zero
    a430:	003fec06 	br	a3e4 <__sflush_r+0x110>
    a434:	88801415 	stw	r2,80(r17)
    a438:	003fd206 	br	a384 <__sflush_r+0xb0>
    a43c:	28c00f17 	ldw	r3,60(r5)
    a440:	00ffb316 	blt	zero,r3,a310 <__sflush_r+0x3c>
    a444:	003fd706 	br	a3a4 <__sflush_r+0xd0>
    a448:	89400717 	ldw	r5,28(r17)
    a44c:	000d883a 	mov	r6,zero
    a450:	01c00044 	movi	r7,1
    a454:	9809883a 	mov	r4,r19
    a458:	403ee83a 	callr	r8
    a45c:	100d883a 	mov	r6,r2
    a460:	00bfffc4 	movi	r2,-1
    a464:	30801426 	beq	r6,r2,a4b8 <__sflush_r+0x1e4>
    a468:	8880030b 	ldhu	r2,12(r17)
    a46c:	8a000a17 	ldw	r8,40(r17)
    a470:	003fae06 	br	a32c <__sflush_r+0x58>
    a474:	98c00017 	ldw	r3,0(r19)
    a478:	183fba26 	beq	r3,zero,a364 <__sflush_r+0x90>
    a47c:	01000744 	movi	r4,29
    a480:	19000626 	beq	r3,r4,a49c <__sflush_r+0x1c8>
    a484:	01000584 	movi	r4,22
    a488:	19000426 	beq	r3,r4,a49c <__sflush_r+0x1c8>
    a48c:	88c0030b 	ldhu	r3,12(r17)
    a490:	18c01014 	ori	r3,r3,64
    a494:	88c0030d 	sth	r3,12(r17)
    a498:	003fc306 	br	a3a8 <__sflush_r+0xd4>
    a49c:	8880030b 	ldhu	r2,12(r17)
    a4a0:	88c00417 	ldw	r3,16(r17)
    a4a4:	88000115 	stw	zero,4(r17)
    a4a8:	10bdffcc 	andi	r2,r2,63487
    a4ac:	8880030d 	sth	r2,12(r17)
    a4b0:	88c00015 	stw	r3,0(r17)
    a4b4:	003fb306 	br	a384 <__sflush_r+0xb0>
    a4b8:	98800017 	ldw	r2,0(r19)
    a4bc:	103fea26 	beq	r2,zero,a468 <__sflush_r+0x194>
    a4c0:	00c00744 	movi	r3,29
    a4c4:	10c00226 	beq	r2,r3,a4d0 <__sflush_r+0x1fc>
    a4c8:	00c00584 	movi	r3,22
    a4cc:	10c0031e 	bne	r2,r3,a4dc <__sflush_r+0x208>
    a4d0:	9c000015 	stw	r16,0(r19)
    a4d4:	0005883a 	mov	r2,zero
    a4d8:	003fb306 	br	a3a8 <__sflush_r+0xd4>
    a4dc:	88c0030b 	ldhu	r3,12(r17)
    a4e0:	3005883a 	mov	r2,r6
    a4e4:	18c01014 	ori	r3,r3,64
    a4e8:	88c0030d 	sth	r3,12(r17)
    a4ec:	003fae06 	br	a3a8 <__sflush_r+0xd4>

0000a4f0 <_fflush_r>:
    a4f0:	defffd04 	addi	sp,sp,-12
    a4f4:	dc000115 	stw	r16,4(sp)
    a4f8:	dfc00215 	stw	ra,8(sp)
    a4fc:	2021883a 	mov	r16,r4
    a500:	20000226 	beq	r4,zero,a50c <_fflush_r+0x1c>
    a504:	20800e17 	ldw	r2,56(r4)
    a508:	10000c26 	beq	r2,zero,a53c <_fflush_r+0x4c>
    a50c:	2880030f 	ldh	r2,12(r5)
    a510:	1000051e 	bne	r2,zero,a528 <_fflush_r+0x38>
    a514:	0005883a 	mov	r2,zero
    a518:	dfc00217 	ldw	ra,8(sp)
    a51c:	dc000117 	ldw	r16,4(sp)
    a520:	dec00304 	addi	sp,sp,12
    a524:	f800283a 	ret
    a528:	8009883a 	mov	r4,r16
    a52c:	dfc00217 	ldw	ra,8(sp)
    a530:	dc000117 	ldw	r16,4(sp)
    a534:	dec00304 	addi	sp,sp,12
    a538:	000a2d41 	jmpi	a2d4 <__sflush_r>
    a53c:	d9400015 	stw	r5,0(sp)
    a540:	00092900 	call	9290 <__sinit>
    a544:	d9400017 	ldw	r5,0(sp)
    a548:	003ff006 	br	a50c <_fflush_r+0x1c>

0000a54c <fflush>:
    a54c:	20000526 	beq	r4,zero,a564 <fflush+0x18>
    a550:	00800074 	movhi	r2,1
    a554:	10b3d404 	addi	r2,r2,-12464
    a558:	200b883a 	mov	r5,r4
    a55c:	11000017 	ldw	r4,0(r2)
    a560:	000a4f01 	jmpi	a4f0 <_fflush_r>
    a564:	00800074 	movhi	r2,1
    a568:	10b3d304 	addi	r2,r2,-12468
    a56c:	11000017 	ldw	r4,0(r2)
    a570:	01400074 	movhi	r5,1
    a574:	29693c04 	addi	r5,r5,-23312
    a578:	00093a41 	jmpi	93a4 <_fwalk_reent>

0000a57c <_malloc_trim_r>:
    a57c:	defffb04 	addi	sp,sp,-20
    a580:	dcc00315 	stw	r19,12(sp)
    a584:	04c00074 	movhi	r19,1
    a588:	dc800215 	stw	r18,8(sp)
    a58c:	dc400115 	stw	r17,4(sp)
    a590:	dc000015 	stw	r16,0(sp)
    a594:	dfc00415 	stw	ra,16(sp)
    a598:	2821883a 	mov	r16,r5
    a59c:	9cf25004 	addi	r19,r19,-14016
    a5a0:	2025883a 	mov	r18,r4
    a5a4:	000b1b00 	call	b1b0 <__malloc_lock>
    a5a8:	98800217 	ldw	r2,8(r19)
    a5ac:	14400117 	ldw	r17,4(r2)
    a5b0:	00bfff04 	movi	r2,-4
    a5b4:	88a2703a 	and	r17,r17,r2
    a5b8:	8c21c83a 	sub	r16,r17,r16
    a5bc:	8403fbc4 	addi	r16,r16,4079
    a5c0:	8020d33a 	srli	r16,r16,12
    a5c4:	0083ffc4 	movi	r2,4095
    a5c8:	843fffc4 	addi	r16,r16,-1
    a5cc:	8020933a 	slli	r16,r16,12
    a5d0:	1400060e 	bge	r2,r16,a5ec <_malloc_trim_r+0x70>
    a5d4:	000b883a 	mov	r5,zero
    a5d8:	9009883a 	mov	r4,r18
    a5dc:	0009f8c0 	call	9f8c <_sbrk_r>
    a5e0:	98c00217 	ldw	r3,8(r19)
    a5e4:	1c47883a 	add	r3,r3,r17
    a5e8:	10c00a26 	beq	r2,r3,a614 <_malloc_trim_r+0x98>
    a5ec:	9009883a 	mov	r4,r18
    a5f0:	000b1b40 	call	b1b4 <__malloc_unlock>
    a5f4:	0005883a 	mov	r2,zero
    a5f8:	dfc00417 	ldw	ra,16(sp)
    a5fc:	dcc00317 	ldw	r19,12(sp)
    a600:	dc800217 	ldw	r18,8(sp)
    a604:	dc400117 	ldw	r17,4(sp)
    a608:	dc000017 	ldw	r16,0(sp)
    a60c:	dec00504 	addi	sp,sp,20
    a610:	f800283a 	ret
    a614:	040bc83a 	sub	r5,zero,r16
    a618:	9009883a 	mov	r4,r18
    a61c:	0009f8c0 	call	9f8c <_sbrk_r>
    a620:	00ffffc4 	movi	r3,-1
    a624:	10c00d26 	beq	r2,r3,a65c <_malloc_trim_r+0xe0>
    a628:	00c00074 	movhi	r3,1
    a62c:	18f68904 	addi	r3,r3,-9692
    a630:	18800017 	ldw	r2,0(r3)
    a634:	99000217 	ldw	r4,8(r19)
    a638:	8c23c83a 	sub	r17,r17,r16
    a63c:	8c400054 	ori	r17,r17,1
    a640:	1421c83a 	sub	r16,r2,r16
    a644:	24400115 	stw	r17,4(r4)
    a648:	9009883a 	mov	r4,r18
    a64c:	1c000015 	stw	r16,0(r3)
    a650:	000b1b40 	call	b1b4 <__malloc_unlock>
    a654:	00800044 	movi	r2,1
    a658:	003fe706 	br	a5f8 <_malloc_trim_r+0x7c>
    a65c:	000b883a 	mov	r5,zero
    a660:	9009883a 	mov	r4,r18
    a664:	0009f8c0 	call	9f8c <_sbrk_r>
    a668:	99000217 	ldw	r4,8(r19)
    a66c:	014003c4 	movi	r5,15
    a670:	1107c83a 	sub	r3,r2,r4
    a674:	28ffdd0e 	bge	r5,r3,a5ec <_malloc_trim_r+0x70>
    a678:	01400074 	movhi	r5,1
    a67c:	2973d504 	addi	r5,r5,-12460
    a680:	29400017 	ldw	r5,0(r5)
    a684:	18c00054 	ori	r3,r3,1
    a688:	20c00115 	stw	r3,4(r4)
    a68c:	00c00074 	movhi	r3,1
    a690:	1145c83a 	sub	r2,r2,r5
    a694:	18f68904 	addi	r3,r3,-9692
    a698:	18800015 	stw	r2,0(r3)
    a69c:	003fd306 	br	a5ec <_malloc_trim_r+0x70>

0000a6a0 <_free_r>:
    a6a0:	28004126 	beq	r5,zero,a7a8 <_free_r+0x108>
    a6a4:	defffd04 	addi	sp,sp,-12
    a6a8:	dc400115 	stw	r17,4(sp)
    a6ac:	dc000015 	stw	r16,0(sp)
    a6b0:	2023883a 	mov	r17,r4
    a6b4:	2821883a 	mov	r16,r5
    a6b8:	dfc00215 	stw	ra,8(sp)
    a6bc:	000b1b00 	call	b1b0 <__malloc_lock>
    a6c0:	81ffff17 	ldw	r7,-4(r16)
    a6c4:	00bfff84 	movi	r2,-2
    a6c8:	01000074 	movhi	r4,1
    a6cc:	81bffe04 	addi	r6,r16,-8
    a6d0:	3884703a 	and	r2,r7,r2
    a6d4:	21325004 	addi	r4,r4,-14016
    a6d8:	308b883a 	add	r5,r6,r2
    a6dc:	2a400117 	ldw	r9,4(r5)
    a6e0:	22000217 	ldw	r8,8(r4)
    a6e4:	00ffff04 	movi	r3,-4
    a6e8:	48c6703a 	and	r3,r9,r3
    a6ec:	2a005726 	beq	r5,r8,a84c <_free_r+0x1ac>
    a6f0:	28c00115 	stw	r3,4(r5)
    a6f4:	39c0004c 	andi	r7,r7,1
    a6f8:	3800091e 	bne	r7,zero,a720 <_free_r+0x80>
    a6fc:	823ffe17 	ldw	r8,-8(r16)
    a700:	22400204 	addi	r9,r4,8
    a704:	320dc83a 	sub	r6,r6,r8
    a708:	31c00217 	ldw	r7,8(r6)
    a70c:	1205883a 	add	r2,r2,r8
    a710:	3a406526 	beq	r7,r9,a8a8 <_free_r+0x208>
    a714:	32000317 	ldw	r8,12(r6)
    a718:	3a000315 	stw	r8,12(r7)
    a71c:	41c00215 	stw	r7,8(r8)
    a720:	28cf883a 	add	r7,r5,r3
    a724:	39c00117 	ldw	r7,4(r7)
    a728:	39c0004c 	andi	r7,r7,1
    a72c:	38003a26 	beq	r7,zero,a818 <_free_r+0x178>
    a730:	10c00054 	ori	r3,r2,1
    a734:	30c00115 	stw	r3,4(r6)
    a738:	3087883a 	add	r3,r6,r2
    a73c:	18800015 	stw	r2,0(r3)
    a740:	00c07fc4 	movi	r3,511
    a744:	18801936 	bltu	r3,r2,a7ac <_free_r+0x10c>
    a748:	1004d0fa 	srli	r2,r2,3
    a74c:	01c00044 	movi	r7,1
    a750:	21400117 	ldw	r5,4(r4)
    a754:	10c00044 	addi	r3,r2,1
    a758:	18c7883a 	add	r3,r3,r3
    a75c:	1005d0ba 	srai	r2,r2,2
    a760:	18c7883a 	add	r3,r3,r3
    a764:	18c7883a 	add	r3,r3,r3
    a768:	1907883a 	add	r3,r3,r4
    a76c:	3884983a 	sll	r2,r7,r2
    a770:	19c00017 	ldw	r7,0(r3)
    a774:	1a3ffe04 	addi	r8,r3,-8
    a778:	1144b03a 	or	r2,r2,r5
    a77c:	32000315 	stw	r8,12(r6)
    a780:	31c00215 	stw	r7,8(r6)
    a784:	20800115 	stw	r2,4(r4)
    a788:	19800015 	stw	r6,0(r3)
    a78c:	39800315 	stw	r6,12(r7)
    a790:	8809883a 	mov	r4,r17
    a794:	dfc00217 	ldw	ra,8(sp)
    a798:	dc400117 	ldw	r17,4(sp)
    a79c:	dc000017 	ldw	r16,0(sp)
    a7a0:	dec00304 	addi	sp,sp,12
    a7a4:	000b1b41 	jmpi	b1b4 <__malloc_unlock>
    a7a8:	f800283a 	ret
    a7ac:	100ad27a 	srli	r5,r2,9
    a7b0:	00c00104 	movi	r3,4
    a7b4:	19404a36 	bltu	r3,r5,a8e0 <_free_r+0x240>
    a7b8:	100ad1ba 	srli	r5,r2,6
    a7bc:	28c00e44 	addi	r3,r5,57
    a7c0:	18c7883a 	add	r3,r3,r3
    a7c4:	29400e04 	addi	r5,r5,56
    a7c8:	18c7883a 	add	r3,r3,r3
    a7cc:	18c7883a 	add	r3,r3,r3
    a7d0:	1909883a 	add	r4,r3,r4
    a7d4:	20c00017 	ldw	r3,0(r4)
    a7d8:	01c00074 	movhi	r7,1
    a7dc:	213ffe04 	addi	r4,r4,-8
    a7e0:	39f25004 	addi	r7,r7,-14016
    a7e4:	20c04426 	beq	r4,r3,a8f8 <_free_r+0x258>
    a7e8:	01ffff04 	movi	r7,-4
    a7ec:	19400117 	ldw	r5,4(r3)
    a7f0:	29ca703a 	and	r5,r5,r7
    a7f4:	1140022e 	bgeu	r2,r5,a800 <_free_r+0x160>
    a7f8:	18c00217 	ldw	r3,8(r3)
    a7fc:	20fffb1e 	bne	r4,r3,a7ec <_free_r+0x14c>
    a800:	19000317 	ldw	r4,12(r3)
    a804:	31000315 	stw	r4,12(r6)
    a808:	30c00215 	stw	r3,8(r6)
    a80c:	21800215 	stw	r6,8(r4)
    a810:	19800315 	stw	r6,12(r3)
    a814:	003fde06 	br	a790 <_free_r+0xf0>
    a818:	29c00217 	ldw	r7,8(r5)
    a81c:	10c5883a 	add	r2,r2,r3
    a820:	00c00074 	movhi	r3,1
    a824:	18f25204 	addi	r3,r3,-14008
    a828:	38c03b26 	beq	r7,r3,a918 <_free_r+0x278>
    a82c:	2a000317 	ldw	r8,12(r5)
    a830:	11400054 	ori	r5,r2,1
    a834:	3087883a 	add	r3,r6,r2
    a838:	3a000315 	stw	r8,12(r7)
    a83c:	41c00215 	stw	r7,8(r8)
    a840:	31400115 	stw	r5,4(r6)
    a844:	18800015 	stw	r2,0(r3)
    a848:	003fbd06 	br	a740 <_free_r+0xa0>
    a84c:	39c0004c 	andi	r7,r7,1
    a850:	10c5883a 	add	r2,r2,r3
    a854:	3800071e 	bne	r7,zero,a874 <_free_r+0x1d4>
    a858:	81fffe17 	ldw	r7,-8(r16)
    a85c:	31cdc83a 	sub	r6,r6,r7
    a860:	30c00317 	ldw	r3,12(r6)
    a864:	31400217 	ldw	r5,8(r6)
    a868:	11c5883a 	add	r2,r2,r7
    a86c:	28c00315 	stw	r3,12(r5)
    a870:	19400215 	stw	r5,8(r3)
    a874:	10c00054 	ori	r3,r2,1
    a878:	30c00115 	stw	r3,4(r6)
    a87c:	00c00074 	movhi	r3,1
    a880:	18f3d604 	addi	r3,r3,-12456
    a884:	18c00017 	ldw	r3,0(r3)
    a888:	21800215 	stw	r6,8(r4)
    a88c:	10ffc036 	bltu	r2,r3,a790 <_free_r+0xf0>
    a890:	00800074 	movhi	r2,1
    a894:	10b67d04 	addi	r2,r2,-9740
    a898:	11400017 	ldw	r5,0(r2)
    a89c:	8809883a 	mov	r4,r17
    a8a0:	000a57c0 	call	a57c <_malloc_trim_r>
    a8a4:	003fba06 	br	a790 <_free_r+0xf0>
    a8a8:	28c9883a 	add	r4,r5,r3
    a8ac:	21000117 	ldw	r4,4(r4)
    a8b0:	2100004c 	andi	r4,r4,1
    a8b4:	2000391e 	bne	r4,zero,a99c <_free_r+0x2fc>
    a8b8:	29c00217 	ldw	r7,8(r5)
    a8bc:	29000317 	ldw	r4,12(r5)
    a8c0:	1885883a 	add	r2,r3,r2
    a8c4:	10c00054 	ori	r3,r2,1
    a8c8:	39000315 	stw	r4,12(r7)
    a8cc:	21c00215 	stw	r7,8(r4)
    a8d0:	30c00115 	stw	r3,4(r6)
    a8d4:	308d883a 	add	r6,r6,r2
    a8d8:	30800015 	stw	r2,0(r6)
    a8dc:	003fac06 	br	a790 <_free_r+0xf0>
    a8e0:	00c00504 	movi	r3,20
    a8e4:	19401536 	bltu	r3,r5,a93c <_free_r+0x29c>
    a8e8:	28c01704 	addi	r3,r5,92
    a8ec:	18c7883a 	add	r3,r3,r3
    a8f0:	294016c4 	addi	r5,r5,91
    a8f4:	003fb406 	br	a7c8 <_free_r+0x128>
    a8f8:	280bd0ba 	srai	r5,r5,2
    a8fc:	00c00044 	movi	r3,1
    a900:	38800117 	ldw	r2,4(r7)
    a904:	194a983a 	sll	r5,r3,r5
    a908:	2007883a 	mov	r3,r4
    a90c:	2884b03a 	or	r2,r5,r2
    a910:	38800115 	stw	r2,4(r7)
    a914:	003fbb06 	br	a804 <_free_r+0x164>
    a918:	21800515 	stw	r6,20(r4)
    a91c:	21800415 	stw	r6,16(r4)
    a920:	10c00054 	ori	r3,r2,1
    a924:	31c00315 	stw	r7,12(r6)
    a928:	31c00215 	stw	r7,8(r6)
    a92c:	30c00115 	stw	r3,4(r6)
    a930:	308d883a 	add	r6,r6,r2
    a934:	30800015 	stw	r2,0(r6)
    a938:	003f9506 	br	a790 <_free_r+0xf0>
    a93c:	00c01504 	movi	r3,84
    a940:	19400536 	bltu	r3,r5,a958 <_free_r+0x2b8>
    a944:	100ad33a 	srli	r5,r2,12
    a948:	28c01bc4 	addi	r3,r5,111
    a94c:	18c7883a 	add	r3,r3,r3
    a950:	29401b84 	addi	r5,r5,110
    a954:	003f9c06 	br	a7c8 <_free_r+0x128>
    a958:	00c05504 	movi	r3,340
    a95c:	19400536 	bltu	r3,r5,a974 <_free_r+0x2d4>
    a960:	100ad3fa 	srli	r5,r2,15
    a964:	28c01e04 	addi	r3,r5,120
    a968:	18c7883a 	add	r3,r3,r3
    a96c:	29401dc4 	addi	r5,r5,119
    a970:	003f9506 	br	a7c8 <_free_r+0x128>
    a974:	00c15504 	movi	r3,1364
    a978:	19400536 	bltu	r3,r5,a990 <_free_r+0x2f0>
    a97c:	100ad4ba 	srli	r5,r2,18
    a980:	28c01f44 	addi	r3,r5,125
    a984:	18c7883a 	add	r3,r3,r3
    a988:	29401f04 	addi	r5,r5,124
    a98c:	003f8e06 	br	a7c8 <_free_r+0x128>
    a990:	00c03f84 	movi	r3,254
    a994:	01401f84 	movi	r5,126
    a998:	003f8b06 	br	a7c8 <_free_r+0x128>
    a99c:	10c00054 	ori	r3,r2,1
    a9a0:	30c00115 	stw	r3,4(r6)
    a9a4:	308d883a 	add	r6,r6,r2
    a9a8:	30800015 	stw	r2,0(r6)
    a9ac:	003f7806 	br	a790 <_free_r+0xf0>

0000a9b0 <_lseek_r>:
    a9b0:	defffd04 	addi	sp,sp,-12
    a9b4:	2805883a 	mov	r2,r5
    a9b8:	dc000015 	stw	r16,0(sp)
    a9bc:	04000074 	movhi	r16,1
    a9c0:	dc400115 	stw	r17,4(sp)
    a9c4:	300b883a 	mov	r5,r6
    a9c8:	84367e04 	addi	r16,r16,-9736
    a9cc:	2023883a 	mov	r17,r4
    a9d0:	380d883a 	mov	r6,r7
    a9d4:	1009883a 	mov	r4,r2
    a9d8:	dfc00215 	stw	ra,8(sp)
    a9dc:	80000015 	stw	zero,0(r16)
    a9e0:	000b0780 	call	b078 <lseek>
    a9e4:	00ffffc4 	movi	r3,-1
    a9e8:	10c00526 	beq	r2,r3,aa00 <_lseek_r+0x50>
    a9ec:	dfc00217 	ldw	ra,8(sp)
    a9f0:	dc400117 	ldw	r17,4(sp)
    a9f4:	dc000017 	ldw	r16,0(sp)
    a9f8:	dec00304 	addi	sp,sp,12
    a9fc:	f800283a 	ret
    aa00:	80c00017 	ldw	r3,0(r16)
    aa04:	183ff926 	beq	r3,zero,a9ec <_lseek_r+0x3c>
    aa08:	88c00015 	stw	r3,0(r17)
    aa0c:	003ff706 	br	a9ec <_lseek_r+0x3c>

0000aa10 <__smakebuf_r>:
    aa10:	2880030b 	ldhu	r2,12(r5)
    aa14:	10c0008c 	andi	r3,r2,2
    aa18:	1800411e 	bne	r3,zero,ab20 <__smakebuf_r+0x110>
    aa1c:	deffec04 	addi	sp,sp,-80
    aa20:	dc000f15 	stw	r16,60(sp)
    aa24:	2821883a 	mov	r16,r5
    aa28:	2940038f 	ldh	r5,14(r5)
    aa2c:	dc401015 	stw	r17,64(sp)
    aa30:	dfc01315 	stw	ra,76(sp)
    aa34:	dcc01215 	stw	r19,72(sp)
    aa38:	dc801115 	stw	r18,68(sp)
    aa3c:	2023883a 	mov	r17,r4
    aa40:	28001c16 	blt	r5,zero,aab4 <__smakebuf_r+0xa4>
    aa44:	d80d883a 	mov	r6,sp
    aa48:	000ac2c0 	call	ac2c <_fstat_r>
    aa4c:	10001816 	blt	r2,zero,aab0 <__smakebuf_r+0xa0>
    aa50:	d8800117 	ldw	r2,4(sp)
    aa54:	00e00014 	movui	r3,32768
    aa58:	10bc000c 	andi	r2,r2,61440
    aa5c:	14c80020 	cmpeqi	r19,r2,8192
    aa60:	10c03726 	beq	r2,r3,ab40 <__smakebuf_r+0x130>
    aa64:	80c0030b 	ldhu	r3,12(r16)
    aa68:	18c20014 	ori	r3,r3,2048
    aa6c:	80c0030d 	sth	r3,12(r16)
    aa70:	00c80004 	movi	r3,8192
    aa74:	10c0521e 	bne	r2,r3,abc0 <__smakebuf_r+0x1b0>
    aa78:	8140038f 	ldh	r5,14(r16)
    aa7c:	8809883a 	mov	r4,r17
    aa80:	000ac880 	call	ac88 <_isatty_r>
    aa84:	10004c26 	beq	r2,zero,abb8 <__smakebuf_r+0x1a8>
    aa88:	8080030b 	ldhu	r2,12(r16)
    aa8c:	80c010c4 	addi	r3,r16,67
    aa90:	80c00015 	stw	r3,0(r16)
    aa94:	10800054 	ori	r2,r2,1
    aa98:	8080030d 	sth	r2,12(r16)
    aa9c:	00800044 	movi	r2,1
    aaa0:	80c00415 	stw	r3,16(r16)
    aaa4:	80800515 	stw	r2,20(r16)
    aaa8:	04810004 	movi	r18,1024
    aaac:	00000706 	br	aacc <__smakebuf_r+0xbc>
    aab0:	8080030b 	ldhu	r2,12(r16)
    aab4:	10c0200c 	andi	r3,r2,128
    aab8:	18001f1e 	bne	r3,zero,ab38 <__smakebuf_r+0x128>
    aabc:	04810004 	movi	r18,1024
    aac0:	10820014 	ori	r2,r2,2048
    aac4:	8080030d 	sth	r2,12(r16)
    aac8:	0027883a 	mov	r19,zero
    aacc:	900b883a 	mov	r5,r18
    aad0:	8809883a 	mov	r4,r17
    aad4:	00094680 	call	9468 <_malloc_r>
    aad8:	10002c26 	beq	r2,zero,ab8c <__smakebuf_r+0x17c>
    aadc:	80c0030b 	ldhu	r3,12(r16)
    aae0:	01000074 	movhi	r4,1
    aae4:	2123ce04 	addi	r4,r4,-28872
    aae8:	89000f15 	stw	r4,60(r17)
    aaec:	18c02014 	ori	r3,r3,128
    aaf0:	80c0030d 	sth	r3,12(r16)
    aaf4:	80800015 	stw	r2,0(r16)
    aaf8:	80800415 	stw	r2,16(r16)
    aafc:	84800515 	stw	r18,20(r16)
    ab00:	98001a1e 	bne	r19,zero,ab6c <__smakebuf_r+0x15c>
    ab04:	dfc01317 	ldw	ra,76(sp)
    ab08:	dcc01217 	ldw	r19,72(sp)
    ab0c:	dc801117 	ldw	r18,68(sp)
    ab10:	dc401017 	ldw	r17,64(sp)
    ab14:	dc000f17 	ldw	r16,60(sp)
    ab18:	dec01404 	addi	sp,sp,80
    ab1c:	f800283a 	ret
    ab20:	288010c4 	addi	r2,r5,67
    ab24:	28800015 	stw	r2,0(r5)
    ab28:	28800415 	stw	r2,16(r5)
    ab2c:	00800044 	movi	r2,1
    ab30:	28800515 	stw	r2,20(r5)
    ab34:	f800283a 	ret
    ab38:	04801004 	movi	r18,64
    ab3c:	003fe006 	br	aac0 <__smakebuf_r+0xb0>
    ab40:	81000a17 	ldw	r4,40(r16)
    ab44:	00c00074 	movhi	r3,1
    ab48:	18e82e04 	addi	r3,r3,-24392
    ab4c:	20ffc51e 	bne	r4,r3,aa64 <__smakebuf_r+0x54>
    ab50:	8080030b 	ldhu	r2,12(r16)
    ab54:	04810004 	movi	r18,1024
    ab58:	84801315 	stw	r18,76(r16)
    ab5c:	1484b03a 	or	r2,r2,r18
    ab60:	8080030d 	sth	r2,12(r16)
    ab64:	0027883a 	mov	r19,zero
    ab68:	003fd806 	br	aacc <__smakebuf_r+0xbc>
    ab6c:	8140038f 	ldh	r5,14(r16)
    ab70:	8809883a 	mov	r4,r17
    ab74:	000ac880 	call	ac88 <_isatty_r>
    ab78:	103fe226 	beq	r2,zero,ab04 <__smakebuf_r+0xf4>
    ab7c:	8080030b 	ldhu	r2,12(r16)
    ab80:	10800054 	ori	r2,r2,1
    ab84:	8080030d 	sth	r2,12(r16)
    ab88:	003fde06 	br	ab04 <__smakebuf_r+0xf4>
    ab8c:	8080030b 	ldhu	r2,12(r16)
    ab90:	10c0800c 	andi	r3,r2,512
    ab94:	183fdb1e 	bne	r3,zero,ab04 <__smakebuf_r+0xf4>
    ab98:	10800094 	ori	r2,r2,2
    ab9c:	80c010c4 	addi	r3,r16,67
    aba0:	8080030d 	sth	r2,12(r16)
    aba4:	00800044 	movi	r2,1
    aba8:	80c00015 	stw	r3,0(r16)
    abac:	80c00415 	stw	r3,16(r16)
    abb0:	80800515 	stw	r2,20(r16)
    abb4:	003fd306 	br	ab04 <__smakebuf_r+0xf4>
    abb8:	04810004 	movi	r18,1024
    abbc:	003fc306 	br	aacc <__smakebuf_r+0xbc>
    abc0:	0027883a 	mov	r19,zero
    abc4:	04810004 	movi	r18,1024
    abc8:	003fc006 	br	aacc <__smakebuf_r+0xbc>

0000abcc <_read_r>:
    abcc:	defffd04 	addi	sp,sp,-12
    abd0:	2805883a 	mov	r2,r5
    abd4:	dc000015 	stw	r16,0(sp)
    abd8:	04000074 	movhi	r16,1
    abdc:	dc400115 	stw	r17,4(sp)
    abe0:	300b883a 	mov	r5,r6
    abe4:	84367e04 	addi	r16,r16,-9736
    abe8:	2023883a 	mov	r17,r4
    abec:	380d883a 	mov	r6,r7
    abf0:	1009883a 	mov	r4,r2
    abf4:	dfc00215 	stw	ra,8(sp)
    abf8:	80000015 	stw	zero,0(r16)
    abfc:	000b1b80 	call	b1b8 <read>
    ac00:	00ffffc4 	movi	r3,-1
    ac04:	10c00526 	beq	r2,r3,ac1c <_read_r+0x50>
    ac08:	dfc00217 	ldw	ra,8(sp)
    ac0c:	dc400117 	ldw	r17,4(sp)
    ac10:	dc000017 	ldw	r16,0(sp)
    ac14:	dec00304 	addi	sp,sp,12
    ac18:	f800283a 	ret
    ac1c:	80c00017 	ldw	r3,0(r16)
    ac20:	183ff926 	beq	r3,zero,ac08 <_read_r+0x3c>
    ac24:	88c00015 	stw	r3,0(r17)
    ac28:	003ff706 	br	ac08 <_read_r+0x3c>

0000ac2c <_fstat_r>:
    ac2c:	defffd04 	addi	sp,sp,-12
    ac30:	2805883a 	mov	r2,r5
    ac34:	dc000015 	stw	r16,0(sp)
    ac38:	04000074 	movhi	r16,1
    ac3c:	dc400115 	stw	r17,4(sp)
    ac40:	84367e04 	addi	r16,r16,-9736
    ac44:	2023883a 	mov	r17,r4
    ac48:	300b883a 	mov	r5,r6
    ac4c:	1009883a 	mov	r4,r2
    ac50:	dfc00215 	stw	ra,8(sp)
    ac54:	80000015 	stw	zero,0(r16)
    ac58:	000ade40 	call	ade4 <fstat>
    ac5c:	00ffffc4 	movi	r3,-1
    ac60:	10c00526 	beq	r2,r3,ac78 <_fstat_r+0x4c>
    ac64:	dfc00217 	ldw	ra,8(sp)
    ac68:	dc400117 	ldw	r17,4(sp)
    ac6c:	dc000017 	ldw	r16,0(sp)
    ac70:	dec00304 	addi	sp,sp,12
    ac74:	f800283a 	ret
    ac78:	80c00017 	ldw	r3,0(r16)
    ac7c:	183ff926 	beq	r3,zero,ac64 <_fstat_r+0x38>
    ac80:	88c00015 	stw	r3,0(r17)
    ac84:	003ff706 	br	ac64 <_fstat_r+0x38>

0000ac88 <_isatty_r>:
    ac88:	defffd04 	addi	sp,sp,-12
    ac8c:	dc000015 	stw	r16,0(sp)
    ac90:	04000074 	movhi	r16,1
    ac94:	dc400115 	stw	r17,4(sp)
    ac98:	84367e04 	addi	r16,r16,-9736
    ac9c:	2023883a 	mov	r17,r4
    aca0:	2809883a 	mov	r4,r5
    aca4:	dfc00215 	stw	ra,8(sp)
    aca8:	80000015 	stw	zero,0(r16)
    acac:	000aeb80 	call	aeb8 <isatty>
    acb0:	00ffffc4 	movi	r3,-1
    acb4:	10c00526 	beq	r2,r3,accc <_isatty_r+0x44>
    acb8:	dfc00217 	ldw	ra,8(sp)
    acbc:	dc400117 	ldw	r17,4(sp)
    acc0:	dc000017 	ldw	r16,0(sp)
    acc4:	dec00304 	addi	sp,sp,12
    acc8:	f800283a 	ret
    accc:	80c00017 	ldw	r3,0(r16)
    acd0:	183ff926 	beq	r3,zero,acb8 <_isatty_r+0x30>
    acd4:	88c00015 	stw	r3,0(r17)
    acd8:	003ff706 	br	acb8 <_isatty_r+0x30>

0000acdc <__mulsi3>:
    acdc:	0005883a 	mov	r2,zero
    ace0:	20000726 	beq	r4,zero,ad00 <__mulsi3+0x24>
    ace4:	20c0004c 	andi	r3,r4,1
    ace8:	2008d07a 	srli	r4,r4,1
    acec:	18000126 	beq	r3,zero,acf4 <__mulsi3+0x18>
    acf0:	1145883a 	add	r2,r2,r5
    acf4:	294b883a 	add	r5,r5,r5
    acf8:	203ffa1e 	bne	r4,zero,ace4 <__mulsi3+0x8>
    acfc:	f800283a 	ret
    ad00:	f800283a 	ret

0000ad04 <close>:
    ad04:	defffd04 	addi	sp,sp,-12
    ad08:	dfc00215 	stw	ra,8(sp)
    ad0c:	dc400115 	stw	r17,4(sp)
    ad10:	dc000015 	stw	r16,0(sp)
    ad14:	20002216 	blt	r4,zero,ada0 <close+0x9c>
    ad18:	01400304 	movi	r5,12
    ad1c:	2021883a 	mov	r16,r4
    ad20:	000acdc0 	call	acdc <__mulsi3>
    ad24:	01000074 	movhi	r4,1
    ad28:	21335204 	addi	r4,r4,-12984
    ad2c:	2089883a 	add	r4,r4,r2
    ad30:	20001b26 	beq	r4,zero,ada0 <close+0x9c>
    ad34:	20800017 	ldw	r2,0(r4)
    ad38:	10800417 	ldw	r2,16(r2)
    ad3c:	10000b26 	beq	r2,zero,ad6c <close+0x68>
    ad40:	103ee83a 	callr	r2
    ad44:	8009883a 	mov	r4,r16
    ad48:	1023883a 	mov	r17,r2
    ad4c:	000b2f00 	call	b2f0 <alt_release_fd>
    ad50:	0005883a 	mov	r2,zero
    ad54:	88000916 	blt	r17,zero,ad7c <close+0x78>
    ad58:	dfc00217 	ldw	ra,8(sp)
    ad5c:	dc400117 	ldw	r17,4(sp)
    ad60:	dc000017 	ldw	r16,0(sp)
    ad64:	dec00304 	addi	sp,sp,12
    ad68:	f800283a 	ret
    ad6c:	8009883a 	mov	r4,r16
    ad70:	000b2f00 	call	b2f0 <alt_release_fd>
    ad74:	0005883a 	mov	r2,zero
    ad78:	003ff706 	br	ad58 <close+0x54>
    ad7c:	00800074 	movhi	r2,1
    ad80:	10b3dc04 	addi	r2,r2,-12432
    ad84:	10800017 	ldw	r2,0(r2)
    ad88:	10000e26 	beq	r2,zero,adc4 <close+0xc0>
    ad8c:	103ee83a 	callr	r2
    ad90:	0463c83a 	sub	r17,zero,r17
    ad94:	14400015 	stw	r17,0(r2)
    ad98:	00bfffc4 	movi	r2,-1
    ad9c:	003fee06 	br	ad58 <close+0x54>
    ada0:	00800074 	movhi	r2,1
    ada4:	10b3dc04 	addi	r2,r2,-12432
    ada8:	10800017 	ldw	r2,0(r2)
    adac:	10000826 	beq	r2,zero,add0 <close+0xcc>
    adb0:	103ee83a 	callr	r2
    adb4:	00c01444 	movi	r3,81
    adb8:	10c00015 	stw	r3,0(r2)
    adbc:	00bfffc4 	movi	r2,-1
    adc0:	003fe506 	br	ad58 <close+0x54>
    adc4:	00800074 	movhi	r2,1
    adc8:	10b67e04 	addi	r2,r2,-9736
    adcc:	003ff006 	br	ad90 <close+0x8c>
    add0:	00800074 	movhi	r2,1
    add4:	10b67e04 	addi	r2,r2,-9736
    add8:	003ff606 	br	adb4 <close+0xb0>

0000addc <alt_dev_null_write>:
    addc:	3005883a 	mov	r2,r6
    ade0:	f800283a 	ret

0000ade4 <fstat>:
    ade4:	defffb04 	addi	sp,sp,-20
    ade8:	dfc00415 	stw	ra,16(sp)
    adec:	dcc00315 	stw	r19,12(sp)
    adf0:	dc800215 	stw	r18,8(sp)
    adf4:	dc400115 	stw	r17,4(sp)
    adf8:	dc000015 	stw	r16,0(sp)
    adfc:	20002216 	blt	r4,zero,ae88 <fstat+0xa4>
    ae00:	2827883a 	mov	r19,r5
    ae04:	04000074 	movhi	r16,1
    ae08:	01400304 	movi	r5,12
    ae0c:	2023883a 	mov	r17,r4
    ae10:	84335204 	addi	r16,r16,-12984
    ae14:	000acdc0 	call	acdc <__mulsi3>
    ae18:	80a5883a 	add	r18,r16,r2
    ae1c:	90001a26 	beq	r18,zero,ae88 <fstat+0xa4>
    ae20:	01400304 	movi	r5,12
    ae24:	8809883a 	mov	r4,r17
    ae28:	000acdc0 	call	acdc <__mulsi3>
    ae2c:	8085883a 	add	r2,r16,r2
    ae30:	10800017 	ldw	r2,0(r2)
    ae34:	10800817 	ldw	r2,32(r2)
    ae38:	10000926 	beq	r2,zero,ae60 <fstat+0x7c>
    ae3c:	980b883a 	mov	r5,r19
    ae40:	9009883a 	mov	r4,r18
    ae44:	dfc00417 	ldw	ra,16(sp)
    ae48:	dcc00317 	ldw	r19,12(sp)
    ae4c:	dc800217 	ldw	r18,8(sp)
    ae50:	dc400117 	ldw	r17,4(sp)
    ae54:	dc000017 	ldw	r16,0(sp)
    ae58:	dec00504 	addi	sp,sp,20
    ae5c:	1000683a 	jmp	r2
    ae60:	00880004 	movi	r2,8192
    ae64:	98800115 	stw	r2,4(r19)
    ae68:	0005883a 	mov	r2,zero
    ae6c:	dfc00417 	ldw	ra,16(sp)
    ae70:	dcc00317 	ldw	r19,12(sp)
    ae74:	dc800217 	ldw	r18,8(sp)
    ae78:	dc400117 	ldw	r17,4(sp)
    ae7c:	dc000017 	ldw	r16,0(sp)
    ae80:	dec00504 	addi	sp,sp,20
    ae84:	f800283a 	ret
    ae88:	00800074 	movhi	r2,1
    ae8c:	10b3dc04 	addi	r2,r2,-12432
    ae90:	10800017 	ldw	r2,0(r2)
    ae94:	10000526 	beq	r2,zero,aeac <fstat+0xc8>
    ae98:	103ee83a 	callr	r2
    ae9c:	00c01444 	movi	r3,81
    aea0:	10c00015 	stw	r3,0(r2)
    aea4:	00bfffc4 	movi	r2,-1
    aea8:	003ff006 	br	ae6c <fstat+0x88>
    aeac:	00800074 	movhi	r2,1
    aeb0:	10b67e04 	addi	r2,r2,-9736
    aeb4:	003ff906 	br	ae9c <fstat+0xb8>

0000aeb8 <isatty>:
    aeb8:	deffef04 	addi	sp,sp,-68
    aebc:	dfc01015 	stw	ra,64(sp)
    aec0:	dc000f15 	stw	r16,60(sp)
    aec4:	20001816 	blt	r4,zero,af28 <isatty+0x70>
    aec8:	01400304 	movi	r5,12
    aecc:	2021883a 	mov	r16,r4
    aed0:	000acdc0 	call	acdc <__mulsi3>
    aed4:	00c00074 	movhi	r3,1
    aed8:	18f35204 	addi	r3,r3,-12984
    aedc:	1885883a 	add	r2,r3,r2
    aee0:	10001126 	beq	r2,zero,af28 <isatty+0x70>
    aee4:	10800017 	ldw	r2,0(r2)
    aee8:	10800817 	ldw	r2,32(r2)
    aeec:	10000926 	beq	r2,zero,af14 <isatty+0x5c>
    aef0:	d80b883a 	mov	r5,sp
    aef4:	8009883a 	mov	r4,r16
    aef8:	000ade40 	call	ade4 <fstat>
    aefc:	d8800117 	ldw	r2,4(sp)
    af00:	10880020 	cmpeqi	r2,r2,8192
    af04:	dfc01017 	ldw	ra,64(sp)
    af08:	dc000f17 	ldw	r16,60(sp)
    af0c:	dec01104 	addi	sp,sp,68
    af10:	f800283a 	ret
    af14:	00800044 	movi	r2,1
    af18:	dfc01017 	ldw	ra,64(sp)
    af1c:	dc000f17 	ldw	r16,60(sp)
    af20:	dec01104 	addi	sp,sp,68
    af24:	f800283a 	ret
    af28:	00800074 	movhi	r2,1
    af2c:	10b3dc04 	addi	r2,r2,-12432
    af30:	10800017 	ldw	r2,0(r2)
    af34:	10000826 	beq	r2,zero,af58 <isatty+0xa0>
    af38:	103ee83a 	callr	r2
    af3c:	00c01444 	movi	r3,81
    af40:	10c00015 	stw	r3,0(r2)
    af44:	0005883a 	mov	r2,zero
    af48:	dfc01017 	ldw	ra,64(sp)
    af4c:	dc000f17 	ldw	r16,60(sp)
    af50:	dec01104 	addi	sp,sp,68
    af54:	f800283a 	ret
    af58:	00800074 	movhi	r2,1
    af5c:	10b67e04 	addi	r2,r2,-9736
    af60:	003ff606 	br	af3c <isatty+0x84>

0000af64 <alt_load>:
    af64:	deffff04 	addi	sp,sp,-4
    af68:	01800074 	movhi	r6,1
    af6c:	01c00074 	movhi	r7,1
    af70:	dfc00015 	stw	ra,0(sp)
    af74:	31b14704 	addi	r6,r6,-15076
    af78:	39f3e104 	addi	r7,r7,-12412
    af7c:	31c01026 	beq	r6,r7,afc0 <alt_load+0x5c>
    af80:	00800074 	movhi	r2,1
    af84:	10b3e104 	addi	r2,r2,-12412
    af88:	30800d26 	beq	r6,r2,afc0 <alt_load+0x5c>
    af8c:	30c00104 	addi	r3,r6,4
    af90:	10c7c83a 	sub	r3,r2,r3
    af94:	1806d0ba 	srli	r3,r3,2
    af98:	0005883a 	mov	r2,zero
    af9c:	18c00044 	addi	r3,r3,1
    afa0:	18c7883a 	add	r3,r3,r3
    afa4:	18c7883a 	add	r3,r3,r3
    afa8:	11c9883a 	add	r4,r2,r7
    afac:	21400017 	ldw	r5,0(r4)
    afb0:	1189883a 	add	r4,r2,r6
    afb4:	10800104 	addi	r2,r2,4
    afb8:	21400015 	stw	r5,0(r4)
    afbc:	10fffa1e 	bne	r2,r3,afa8 <alt_load+0x44>
    afc0:	01800074 	movhi	r6,1
    afc4:	01c00074 	movhi	r7,1
    afc8:	31a00804 	addi	r6,r6,-32736
    afcc:	39e00804 	addi	r7,r7,-32736
    afd0:	31c01026 	beq	r6,r7,b014 <alt_load+0xb0>
    afd4:	00800074 	movhi	r2,1
    afd8:	10a06104 	addi	r2,r2,-32380
    afdc:	30800d26 	beq	r6,r2,b014 <alt_load+0xb0>
    afe0:	30c00104 	addi	r3,r6,4
    afe4:	10c7c83a 	sub	r3,r2,r3
    afe8:	1806d0ba 	srli	r3,r3,2
    afec:	0005883a 	mov	r2,zero
    aff0:	18c00044 	addi	r3,r3,1
    aff4:	18c7883a 	add	r3,r3,r3
    aff8:	18c7883a 	add	r3,r3,r3
    affc:	11c9883a 	add	r4,r2,r7
    b000:	21400017 	ldw	r5,0(r4)
    b004:	1189883a 	add	r4,r2,r6
    b008:	10800104 	addi	r2,r2,4
    b00c:	21400015 	stw	r5,0(r4)
    b010:	18bffa1e 	bne	r3,r2,affc <alt_load+0x98>
    b014:	01800074 	movhi	r6,1
    b018:	01c00074 	movhi	r7,1
    b01c:	31b10804 	addi	r6,r6,-15328
    b020:	39f10804 	addi	r7,r7,-15328
    b024:	31c01026 	beq	r6,r7,b068 <alt_load+0x104>
    b028:	00800074 	movhi	r2,1
    b02c:	10b14704 	addi	r2,r2,-15076
    b030:	30800d26 	beq	r6,r2,b068 <alt_load+0x104>
    b034:	30c00104 	addi	r3,r6,4
    b038:	10c7c83a 	sub	r3,r2,r3
    b03c:	1806d0ba 	srli	r3,r3,2
    b040:	0005883a 	mov	r2,zero
    b044:	18c00044 	addi	r3,r3,1
    b048:	18c7883a 	add	r3,r3,r3
    b04c:	18c7883a 	add	r3,r3,r3
    b050:	11c9883a 	add	r4,r2,r7
    b054:	21400017 	ldw	r5,0(r4)
    b058:	1189883a 	add	r4,r2,r6
    b05c:	10800104 	addi	r2,r2,4
    b060:	21400015 	stw	r5,0(r4)
    b064:	10fffa1e 	bne	r2,r3,b050 <alt_load+0xec>
    b068:	000b7cc0 	call	b7cc <alt_dcache_flush_all>
    b06c:	dfc00017 	ldw	ra,0(sp)
    b070:	dec00104 	addi	sp,sp,4
    b074:	000b9101 	jmpi	b910 <alt_icache_flush_all>

0000b078 <lseek>:
    b078:	defffa04 	addi	sp,sp,-24
    b07c:	dfc00515 	stw	ra,20(sp)
    b080:	dd000415 	stw	r20,16(sp)
    b084:	dcc00315 	stw	r19,12(sp)
    b088:	dc800215 	stw	r18,8(sp)
    b08c:	dc400115 	stw	r17,4(sp)
    b090:	dc000015 	stw	r16,0(sp)
    b094:	20001d16 	blt	r4,zero,b10c <lseek+0x94>
    b098:	2827883a 	mov	r19,r5
    b09c:	04000074 	movhi	r16,1
    b0a0:	01400304 	movi	r5,12
    b0a4:	2023883a 	mov	r17,r4
    b0a8:	3029883a 	mov	r20,r6
    b0ac:	84335204 	addi	r16,r16,-12984
    b0b0:	000acdc0 	call	acdc <__mulsi3>
    b0b4:	80a5883a 	add	r18,r16,r2
    b0b8:	90001426 	beq	r18,zero,b10c <lseek+0x94>
    b0bc:	01400304 	movi	r5,12
    b0c0:	8809883a 	mov	r4,r17
    b0c4:	000acdc0 	call	acdc <__mulsi3>
    b0c8:	8085883a 	add	r2,r16,r2
    b0cc:	10800017 	ldw	r2,0(r2)
    b0d0:	10800717 	ldw	r2,28(r2)
    b0d4:	10001626 	beq	r2,zero,b130 <lseek+0xb8>
    b0d8:	a00d883a 	mov	r6,r20
    b0dc:	980b883a 	mov	r5,r19
    b0e0:	9009883a 	mov	r4,r18
    b0e4:	103ee83a 	callr	r2
    b0e8:	10001616 	blt	r2,zero,b144 <lseek+0xcc>
    b0ec:	dfc00517 	ldw	ra,20(sp)
    b0f0:	dd000417 	ldw	r20,16(sp)
    b0f4:	dcc00317 	ldw	r19,12(sp)
    b0f8:	dc800217 	ldw	r18,8(sp)
    b0fc:	dc400117 	ldw	r17,4(sp)
    b100:	dc000017 	ldw	r16,0(sp)
    b104:	dec00604 	addi	sp,sp,24
    b108:	f800283a 	ret
    b10c:	04001444 	movi	r16,81
    b110:	00800074 	movhi	r2,1
    b114:	10b3dc04 	addi	r2,r2,-12432
    b118:	10800017 	ldw	r2,0(r2)
    b11c:	10000626 	beq	r2,zero,b138 <lseek+0xc0>
    b120:	103ee83a 	callr	r2
    b124:	14000015 	stw	r16,0(r2)
    b128:	00bfffc4 	movi	r2,-1
    b12c:	003fef06 	br	b0ec <lseek+0x74>
    b130:	04002184 	movi	r16,134
    b134:	003ff606 	br	b110 <lseek+0x98>
    b138:	00800074 	movhi	r2,1
    b13c:	10b67e04 	addi	r2,r2,-9736
    b140:	003ff806 	br	b124 <lseek+0xac>
    b144:	00a1c83a 	sub	r16,zero,r2
    b148:	003ff106 	br	b110 <lseek+0x98>

0000b14c <alt_main>:
    b14c:	defffe04 	addi	sp,sp,-8
    b150:	0009883a 	mov	r4,zero
    b154:	dfc00115 	stw	ra,4(sp)
    b158:	dc000015 	stw	r16,0(sp)
    b15c:	000b4cc0 	call	b4cc <alt_irq_init>
    b160:	000b4ec0 	call	b4ec <alt_sys_init>
    b164:	01400074 	movhi	r5,1
    b168:	29714404 	addi	r5,r5,-15088
    b16c:	01800074 	movhi	r6,1
    b170:	2809883a 	mov	r4,r5
    b174:	31b13f04 	addi	r6,r6,-15108
    b178:	000baa40 	call	baa4 <alt_io_redirect>
    b17c:	000b8480 	call	b848 <_do_ctors>
    b180:	01000074 	movhi	r4,1
    b184:	212e2b04 	addi	r4,r4,-18260
    b188:	000c0140 	call	c014 <atexit>
    b18c:	d1a2ad17 	ldw	r6,-30028(gp)
    b190:	d162ae17 	ldw	r5,-30024(gp)
    b194:	d122af17 	ldw	r4,-30020(gp)
    b198:	000856c0 	call	856c <main>
    b19c:	01000044 	movi	r4,1
    b1a0:	1021883a 	mov	r16,r2
    b1a4:	000ad040 	call	ad04 <close>
    b1a8:	8009883a 	mov	r4,r16
    b1ac:	000c0280 	call	c028 <exit>

0000b1b0 <__malloc_lock>:
    b1b0:	f800283a 	ret

0000b1b4 <__malloc_unlock>:
    b1b4:	f800283a 	ret

0000b1b8 <read>:
    b1b8:	defffa04 	addi	sp,sp,-24
    b1bc:	dfc00515 	stw	ra,20(sp)
    b1c0:	dd000415 	stw	r20,16(sp)
    b1c4:	dcc00315 	stw	r19,12(sp)
    b1c8:	dc800215 	stw	r18,8(sp)
    b1cc:	dc400115 	stw	r17,4(sp)
    b1d0:	dc000015 	stw	r16,0(sp)
    b1d4:	20003416 	blt	r4,zero,b2a8 <read+0xf0>
    b1d8:	2827883a 	mov	r19,r5
    b1dc:	04000074 	movhi	r16,1
    b1e0:	01400304 	movi	r5,12
    b1e4:	2025883a 	mov	r18,r4
    b1e8:	3029883a 	mov	r20,r6
    b1ec:	84335204 	addi	r16,r16,-12984
    b1f0:	000acdc0 	call	acdc <__mulsi3>
    b1f4:	80a3883a 	add	r17,r16,r2
    b1f8:	88002b26 	beq	r17,zero,b2a8 <read+0xf0>
    b1fc:	88800217 	ldw	r2,8(r17)
    b200:	00c00044 	movi	r3,1
    b204:	108000cc 	andi	r2,r2,3
    b208:	10c01526 	beq	r2,r3,b260 <read+0xa8>
    b20c:	01400304 	movi	r5,12
    b210:	9009883a 	mov	r4,r18
    b214:	000acdc0 	call	acdc <__mulsi3>
    b218:	8085883a 	add	r2,r16,r2
    b21c:	10800017 	ldw	r2,0(r2)
    b220:	10800517 	ldw	r2,20(r2)
    b224:	10000e26 	beq	r2,zero,b260 <read+0xa8>
    b228:	a00d883a 	mov	r6,r20
    b22c:	980b883a 	mov	r5,r19
    b230:	8809883a 	mov	r4,r17
    b234:	103ee83a 	callr	r2
    b238:	1021883a 	mov	r16,r2
    b23c:	10001116 	blt	r2,zero,b284 <read+0xcc>
    b240:	dfc00517 	ldw	ra,20(sp)
    b244:	dd000417 	ldw	r20,16(sp)
    b248:	dcc00317 	ldw	r19,12(sp)
    b24c:	dc800217 	ldw	r18,8(sp)
    b250:	dc400117 	ldw	r17,4(sp)
    b254:	dc000017 	ldw	r16,0(sp)
    b258:	dec00604 	addi	sp,sp,24
    b25c:	f800283a 	ret
    b260:	00800074 	movhi	r2,1
    b264:	10b3dc04 	addi	r2,r2,-12432
    b268:	10800017 	ldw	r2,0(r2)
    b26c:	10001726 	beq	r2,zero,b2cc <read+0x114>
    b270:	103ee83a 	callr	r2
    b274:	00c00344 	movi	r3,13
    b278:	10c00015 	stw	r3,0(r2)
    b27c:	00bfffc4 	movi	r2,-1
    b280:	003fef06 	br	b240 <read+0x88>
    b284:	00800074 	movhi	r2,1
    b288:	10b3dc04 	addi	r2,r2,-12432
    b28c:	10800017 	ldw	r2,0(r2)
    b290:	10001126 	beq	r2,zero,b2d8 <read+0x120>
    b294:	103ee83a 	callr	r2
    b298:	0421c83a 	sub	r16,zero,r16
    b29c:	14000015 	stw	r16,0(r2)
    b2a0:	00bfffc4 	movi	r2,-1
    b2a4:	003fe606 	br	b240 <read+0x88>
    b2a8:	00800074 	movhi	r2,1
    b2ac:	10b3dc04 	addi	r2,r2,-12432
    b2b0:	10800017 	ldw	r2,0(r2)
    b2b4:	10000b26 	beq	r2,zero,b2e4 <read+0x12c>
    b2b8:	103ee83a 	callr	r2
    b2bc:	00c01444 	movi	r3,81
    b2c0:	10c00015 	stw	r3,0(r2)
    b2c4:	00bfffc4 	movi	r2,-1
    b2c8:	003fdd06 	br	b240 <read+0x88>
    b2cc:	00800074 	movhi	r2,1
    b2d0:	10b67e04 	addi	r2,r2,-9736
    b2d4:	003fe706 	br	b274 <read+0xbc>
    b2d8:	00800074 	movhi	r2,1
    b2dc:	10b67e04 	addi	r2,r2,-9736
    b2e0:	003fed06 	br	b298 <read+0xe0>
    b2e4:	00800074 	movhi	r2,1
    b2e8:	10b67e04 	addi	r2,r2,-9736
    b2ec:	003ff306 	br	b2bc <read+0x104>

0000b2f0 <alt_release_fd>:
    b2f0:	00c00084 	movi	r3,2
    b2f4:	1900140e 	bge	r3,r4,b348 <alt_release_fd+0x58>
    b2f8:	defffd04 	addi	sp,sp,-12
    b2fc:	dc400115 	stw	r17,4(sp)
    b300:	01400304 	movi	r5,12
    b304:	04400074 	movhi	r17,1
    b308:	dfc00215 	stw	ra,8(sp)
    b30c:	dc000015 	stw	r16,0(sp)
    b310:	8c735204 	addi	r17,r17,-12984
    b314:	2021883a 	mov	r16,r4
    b318:	000acdc0 	call	acdc <__mulsi3>
    b31c:	8885883a 	add	r2,r17,r2
    b320:	01400304 	movi	r5,12
    b324:	8009883a 	mov	r4,r16
    b328:	10000215 	stw	zero,8(r2)
    b32c:	000acdc0 	call	acdc <__mulsi3>
    b330:	8885883a 	add	r2,r17,r2
    b334:	10000015 	stw	zero,0(r2)
    b338:	dfc00217 	ldw	ra,8(sp)
    b33c:	dc400117 	ldw	r17,4(sp)
    b340:	dc000017 	ldw	r16,0(sp)
    b344:	dec00304 	addi	sp,sp,12
    b348:	f800283a 	ret

0000b34c <sbrk>:
    b34c:	000b303a 	rdctl	r5,status
    b350:	00bfff84 	movi	r2,-2
    b354:	2884703a 	and	r2,r5,r2
    b358:	1001703a 	wrctl	status,r2
    b35c:	d0a00b17 	ldw	r2,-32724(gp)
    b360:	00ffff04 	movi	r3,-4
    b364:	108000c4 	addi	r2,r2,3
    b368:	10c4703a 	and	r2,r2,r3
    b36c:	00c00074 	movhi	r3,1
    b370:	d0a00b15 	stw	r2,-32724(gp)
    b374:	1109883a 	add	r4,r2,r4
    b378:	18c00004 	addi	r3,r3,0
    b37c:	19000336 	bltu	r3,r4,b38c <sbrk+0x40>
    b380:	d1200b15 	stw	r4,-32724(gp)
    b384:	2801703a 	wrctl	status,r5
    b388:	f800283a 	ret
    b38c:	2801703a 	wrctl	status,r5
    b390:	00bfffc4 	movi	r2,-1
    b394:	f800283a 	ret

0000b398 <write>:
    b398:	defffa04 	addi	sp,sp,-24
    b39c:	dfc00515 	stw	ra,20(sp)
    b3a0:	dd000415 	stw	r20,16(sp)
    b3a4:	dcc00315 	stw	r19,12(sp)
    b3a8:	dc800215 	stw	r18,8(sp)
    b3ac:	dc400115 	stw	r17,4(sp)
    b3b0:	dc000015 	stw	r16,0(sp)
    b3b4:	20003616 	blt	r4,zero,b490 <write+0xf8>
    b3b8:	2827883a 	mov	r19,r5
    b3bc:	04000074 	movhi	r16,1
    b3c0:	01400304 	movi	r5,12
    b3c4:	2025883a 	mov	r18,r4
    b3c8:	3029883a 	mov	r20,r6
    b3cc:	84335204 	addi	r16,r16,-12984
    b3d0:	000acdc0 	call	acdc <__mulsi3>
    b3d4:	80a3883a 	add	r17,r16,r2
    b3d8:	88002d26 	beq	r17,zero,b490 <write+0xf8>
    b3dc:	88800217 	ldw	r2,8(r17)
    b3e0:	108000cc 	andi	r2,r2,3
    b3e4:	10001526 	beq	r2,zero,b43c <write+0xa4>
    b3e8:	01400304 	movi	r5,12
    b3ec:	9009883a 	mov	r4,r18
    b3f0:	000acdc0 	call	acdc <__mulsi3>
    b3f4:	8085883a 	add	r2,r16,r2
    b3f8:	10800017 	ldw	r2,0(r2)
    b3fc:	10800617 	ldw	r2,24(r2)
    b400:	10000e26 	beq	r2,zero,b43c <write+0xa4>
    b404:	a00d883a 	mov	r6,r20
    b408:	980b883a 	mov	r5,r19
    b40c:	8809883a 	mov	r4,r17
    b410:	103ee83a 	callr	r2
    b414:	1021883a 	mov	r16,r2
    b418:	10001416 	blt	r2,zero,b46c <write+0xd4>
    b41c:	dfc00517 	ldw	ra,20(sp)
    b420:	dd000417 	ldw	r20,16(sp)
    b424:	dcc00317 	ldw	r19,12(sp)
    b428:	dc800217 	ldw	r18,8(sp)
    b42c:	dc400117 	ldw	r17,4(sp)
    b430:	dc000017 	ldw	r16,0(sp)
    b434:	dec00604 	addi	sp,sp,24
    b438:	f800283a 	ret
    b43c:	00800074 	movhi	r2,1
    b440:	10b3dc04 	addi	r2,r2,-12432
    b444:	10800017 	ldw	r2,0(r2)
    b448:	10000526 	beq	r2,zero,b460 <write+0xc8>
    b44c:	103ee83a 	callr	r2
    b450:	00c00344 	movi	r3,13
    b454:	10c00015 	stw	r3,0(r2)
    b458:	00bfffc4 	movi	r2,-1
    b45c:	003fef06 	br	b41c <write+0x84>
    b460:	00800074 	movhi	r2,1
    b464:	10b67e04 	addi	r2,r2,-9736
    b468:	003ff906 	br	b450 <write+0xb8>
    b46c:	00800074 	movhi	r2,1
    b470:	10b3dc04 	addi	r2,r2,-12432
    b474:	10800017 	ldw	r2,0(r2)
    b478:	10000e26 	beq	r2,zero,b4b4 <write+0x11c>
    b47c:	103ee83a 	callr	r2
    b480:	0421c83a 	sub	r16,zero,r16
    b484:	14000015 	stw	r16,0(r2)
    b488:	00bfffc4 	movi	r2,-1
    b48c:	003fe306 	br	b41c <write+0x84>
    b490:	00800074 	movhi	r2,1
    b494:	10b3dc04 	addi	r2,r2,-12432
    b498:	10800017 	ldw	r2,0(r2)
    b49c:	10000826 	beq	r2,zero,b4c0 <write+0x128>
    b4a0:	103ee83a 	callr	r2
    b4a4:	00c01444 	movi	r3,81
    b4a8:	10c00015 	stw	r3,0(r2)
    b4ac:	00bfffc4 	movi	r2,-1
    b4b0:	003fda06 	br	b41c <write+0x84>
    b4b4:	00800074 	movhi	r2,1
    b4b8:	10b67e04 	addi	r2,r2,-9736
    b4bc:	003ff006 	br	b480 <write+0xe8>
    b4c0:	00800074 	movhi	r2,1
    b4c4:	10b67e04 	addi	r2,r2,-9736
    b4c8:	003ff606 	br	b4a4 <write+0x10c>

0000b4cc <alt_irq_init>:
    b4cc:	deffff04 	addi	sp,sp,-4
    b4d0:	dfc00015 	stw	ra,0(sp)
    b4d4:	000bde00 	call	bde0 <altera_nios2_gen2_irq_init>
    b4d8:	00800044 	movi	r2,1
    b4dc:	1001703a 	wrctl	status,r2
    b4e0:	dfc00017 	ldw	ra,0(sp)
    b4e4:	dec00104 	addi	sp,sp,4
    b4e8:	f800283a 	ret

0000b4ec <alt_sys_init>:
    b4ec:	01000074 	movhi	r4,1
    b4f0:	defffe04 	addi	sp,sp,-8
    b4f4:	01c0fa04 	movi	r7,1000
    b4f8:	01800044 	movi	r6,1
    b4fc:	21044804 	addi	r4,r4,4384
    b500:	000b883a 	mov	r5,zero
    b504:	dfc00115 	stw	ra,4(sp)
    b508:	dc000015 	stw	r16,0(sp)
    b50c:	000b6480 	call	b648 <alt_avalon_timer_sc_init>
    b510:	04000074 	movhi	r16,1
    b514:	8433d804 	addi	r16,r16,-12448
    b518:	01000074 	movhi	r4,1
    b51c:	800b883a 	mov	r5,r16
    b520:	2133c704 	addi	r4,r4,-12516
    b524:	000b7d00 	call	b7d0 <alt_dev_llist_insert>
    b528:	01000074 	movhi	r4,1
    b52c:	800b883a 	mov	r5,r16
    b530:	2133bc04 	addi	r4,r4,-12560
    b534:	dfc00117 	ldw	ra,4(sp)
    b538:	dc000017 	ldw	r16,0(sp)
    b53c:	dec00204 	addi	sp,sp,8
    b540:	000b7d01 	jmpi	b7d0 <alt_dev_llist_insert>

0000b544 <altera_avalon_jtag_uart_read_fd>:
    b544:	20800017 	ldw	r2,0(r4)
    b548:	21c00217 	ldw	r7,8(r4)
    b54c:	11000a04 	addi	r4,r2,40
    b550:	000b5641 	jmpi	b564 <altera_avalon_jtag_uart_read>

0000b554 <altera_avalon_jtag_uart_write_fd>:
    b554:	20800017 	ldw	r2,0(r4)
    b558:	21c00217 	ldw	r7,8(r4)
    b55c:	11000a04 	addi	r4,r2,40
    b560:	000b5d81 	jmpi	b5d8 <altera_avalon_jtag_uart_write>

0000b564 <altera_avalon_jtag_uart_read>:
    b564:	298d883a 	add	r6,r5,r6
    b568:	22400017 	ldw	r9,0(r4)
    b56c:	2980162e 	bgeu	r5,r6,b5c8 <altera_avalon_jtag_uart_read+0x64>
    b570:	2807883a 	mov	r3,r5
    b574:	3a90000c 	andi	r10,r7,16384
    b578:	00000306 	br	b588 <altera_avalon_jtag_uart_read+0x24>
    b57c:	19000005 	stb	r4,0(r3)
    b580:	1180092e 	bgeu	r2,r6,b5a8 <altera_avalon_jtag_uart_read+0x44>
    b584:	1007883a 	mov	r3,r2
    b588:	49000037 	ldwio	r4,0(r9)
    b58c:	2220000c 	andi	r8,r4,32768
    b590:	18800044 	addi	r2,r3,1
    b594:	403ff91e 	bne	r8,zero,b57c <altera_avalon_jtag_uart_read+0x18>
    b598:	28c0061e 	bne	r5,r3,b5b4 <altera_avalon_jtag_uart_read+0x50>
    b59c:	5000081e 	bne	r10,zero,b5c0 <altera_avalon_jtag_uart_read+0x5c>
    b5a0:	2805883a 	mov	r2,r5
    b5a4:	003ff706 	br	b584 <altera_avalon_jtag_uart_read+0x20>
    b5a8:	28800726 	beq	r5,r2,b5c8 <altera_avalon_jtag_uart_read+0x64>
    b5ac:	1145c83a 	sub	r2,r2,r5
    b5b0:	f800283a 	ret
    b5b4:	1805883a 	mov	r2,r3
    b5b8:	1145c83a 	sub	r2,r2,r5
    b5bc:	f800283a 	ret
    b5c0:	00bffd44 	movi	r2,-11
    b5c4:	f800283a 	ret
    b5c8:	39d0000c 	andi	r7,r7,16384
    b5cc:	383ffc1e 	bne	r7,zero,b5c0 <altera_avalon_jtag_uart_read+0x5c>
    b5d0:	00bffec4 	movi	r2,-5
    b5d4:	f800283a 	ret

0000b5d8 <altera_avalon_jtag_uart_write>:
    b5d8:	21c00017 	ldw	r7,0(r4)
    b5dc:	3005883a 	mov	r2,r6
    b5e0:	298d883a 	add	r6,r5,r6
    b5e4:	39000104 	addi	r4,r7,4
    b5e8:	2980072e 	bgeu	r5,r6,b608 <altera_avalon_jtag_uart_write+0x30>
    b5ec:	20c00037 	ldwio	r3,0(r4)
    b5f0:	18ffffec 	andhi	r3,r3,65535
    b5f4:	183ffd26 	beq	r3,zero,b5ec <altera_avalon_jtag_uart_write+0x14>
    b5f8:	28c00007 	ldb	r3,0(r5)
    b5fc:	38c00035 	stwio	r3,0(r7)
    b600:	29400044 	addi	r5,r5,1
    b604:	003ff806 	br	b5e8 <altera_avalon_jtag_uart_write+0x10>
    b608:	f800283a 	ret

0000b60c <alt_avalon_timer_sc_irq>:
    b60c:	defffe04 	addi	sp,sp,-8
    b610:	dfc00115 	stw	ra,4(sp)
    b614:	dc000015 	stw	r16,0(sp)
    b618:	20000035 	stwio	zero,0(r4)
    b61c:	20800137 	ldwio	r2,4(r4)
    b620:	0021303a 	rdctl	r16,status
    b624:	00bfff84 	movi	r2,-2
    b628:	8084703a 	and	r2,r16,r2
    b62c:	1001703a 	wrctl	status,r2
    b630:	000bcec0 	call	bcec <alt_tick>
    b634:	8001703a 	wrctl	status,r16
    b638:	dfc00117 	ldw	ra,4(sp)
    b63c:	dc000017 	ldw	r16,0(sp)
    b640:	dec00204 	addi	sp,sp,8
    b644:	f800283a 	ret

0000b648 <alt_avalon_timer_sc_init>:
    b648:	00c00074 	movhi	r3,1
    b64c:	18f68404 	addi	r3,r3,-9712
    b650:	1a000017 	ldw	r8,0(r3)
    b654:	defffe04 	addi	sp,sp,-8
    b658:	dfc00115 	stw	ra,4(sp)
    b65c:	2005883a 	mov	r2,r4
    b660:	2809883a 	mov	r4,r5
    b664:	300b883a 	mov	r5,r6
    b668:	4000011e 	bne	r8,zero,b670 <alt_avalon_timer_sc_init+0x28>
    b66c:	19c00015 	stw	r7,0(r3)
    b670:	00c001c4 	movi	r3,7
    b674:	10c00135 	stwio	r3,4(r2)
    b678:	01800074 	movhi	r6,1
    b67c:	31ad8304 	addi	r6,r6,-18932
    b680:	d8000015 	stw	zero,0(sp)
    b684:	100f883a 	mov	r7,r2
    b688:	000b9140 	call	b914 <alt_ic_isr_register>
    b68c:	dfc00117 	ldw	ra,4(sp)
    b690:	dec00204 	addi	sp,sp,8
    b694:	f800283a 	ret

0000b698 <altera_avalon_uart_read_fd>:
    b698:	20800017 	ldw	r2,0(r4)
    b69c:	21c00217 	ldw	r7,8(r4)
    b6a0:	11000a04 	addi	r4,r2,40
    b6a4:	000b6b81 	jmpi	b6b8 <altera_avalon_uart_read>

0000b6a8 <altera_avalon_uart_write_fd>:
    b6a8:	20800017 	ldw	r2,0(r4)
    b6ac:	21c00217 	ldw	r7,8(r4)
    b6b0:	11000a04 	addi	r4,r2,40
    b6b4:	000b7401 	jmpi	b740 <altera_avalon_uart_write>

0000b6b8 <altera_avalon_uart_read>:
    b6b8:	39d0000c 	andi	r7,r7,16384
    b6bc:	20800017 	ldw	r2,0(r4)
    b6c0:	10800204 	addi	r2,r2,8
    b6c4:	10c00037 	ldwio	r3,0(r2)
    b6c8:	10000035 	stwio	zero,0(r2)
    b6cc:	1880200c 	andi	r2,r3,128
    b6d0:	10000e1e 	bne	r2,zero,b70c <altera_avalon_uart_read+0x54>
    b6d4:	383ff926 	beq	r7,zero,b6bc <altera_avalon_uart_read+0x4>
    b6d8:	00800074 	movhi	r2,1
    b6dc:	10b3dc04 	addi	r2,r2,-12432
    b6e0:	10800017 	ldw	r2,0(r2)
    b6e4:	10001026 	beq	r2,zero,b728 <altera_avalon_uart_read+0x70>
    b6e8:	deffff04 	addi	sp,sp,-4
    b6ec:	dfc00015 	stw	ra,0(sp)
    b6f0:	103ee83a 	callr	r2
    b6f4:	00c002c4 	movi	r3,11
    b6f8:	10c00015 	stw	r3,0(r2)
    b6fc:	0005883a 	mov	r2,zero
    b700:	dfc00017 	ldw	ra,0(sp)
    b704:	dec00104 	addi	sp,sp,4
    b708:	f800283a 	ret
    b70c:	20800017 	ldw	r2,0(r4)
    b710:	10800037 	ldwio	r2,0(r2)
    b714:	28800005 	stb	r2,0(r5)
    b718:	18c000cc 	andi	r3,r3,3
    b71c:	183fed1e 	bne	r3,zero,b6d4 <altera_avalon_uart_read+0x1c>
    b720:	00800044 	movi	r2,1
    b724:	f800283a 	ret
    b728:	00800074 	movhi	r2,1
    b72c:	10b67e04 	addi	r2,r2,-9736
    b730:	00c002c4 	movi	r3,11
    b734:	10c00015 	stw	r3,0(r2)
    b738:	0005883a 	mov	r2,zero
    b73c:	f800283a 	ret

0000b740 <altera_avalon_uart_write>:
    b740:	defffd04 	addi	sp,sp,-12
    b744:	dc000115 	stw	r16,4(sp)
    b748:	dfc00215 	stw	ra,8(sp)
    b74c:	39d0000c 	andi	r7,r7,16384
    b750:	3021883a 	mov	r16,r6
    b754:	20c00017 	ldw	r3,0(r4)
    b758:	18800237 	ldwio	r2,8(r3)
    b75c:	1080100c 	andi	r2,r2,64
    b760:	1000071e 	bne	r2,zero,b780 <altera_avalon_uart_write+0x40>
    b764:	38000b1e 	bne	r7,zero,b794 <altera_avalon_uart_write+0x54>
    b768:	803ffa1e 	bne	r16,zero,b754 <altera_avalon_uart_write+0x14>
    b76c:	3405c83a 	sub	r2,r6,r16
    b770:	dfc00217 	ldw	ra,8(sp)
    b774:	dc000117 	ldw	r16,4(sp)
    b778:	dec00304 	addi	sp,sp,12
    b77c:	f800283a 	ret
    b780:	28800007 	ldb	r2,0(r5)
    b784:	29400044 	addi	r5,r5,1
    b788:	18800135 	stwio	r2,4(r3)
    b78c:	843fffc4 	addi	r16,r16,-1
    b790:	383ff526 	beq	r7,zero,b768 <altera_avalon_uart_write+0x28>
    b794:	803ff526 	beq	r16,zero,b76c <altera_avalon_uart_write+0x2c>
    b798:	00800074 	movhi	r2,1
    b79c:	10b3dc04 	addi	r2,r2,-12432
    b7a0:	10800017 	ldw	r2,0(r2)
    b7a4:	10000626 	beq	r2,zero,b7c0 <altera_avalon_uart_write+0x80>
    b7a8:	d9800015 	stw	r6,0(sp)
    b7ac:	103ee83a 	callr	r2
    b7b0:	d9800017 	ldw	r6,0(sp)
    b7b4:	00c002c4 	movi	r3,11
    b7b8:	10c00015 	stw	r3,0(r2)
    b7bc:	003feb06 	br	b76c <altera_avalon_uart_write+0x2c>
    b7c0:	00800074 	movhi	r2,1
    b7c4:	10b67e04 	addi	r2,r2,-9736
    b7c8:	003ffa06 	br	b7b4 <altera_avalon_uart_write+0x74>

0000b7cc <alt_dcache_flush_all>:
    b7cc:	f800283a 	ret

0000b7d0 <alt_dev_llist_insert>:
    b7d0:	20000a26 	beq	r4,zero,b7fc <alt_dev_llist_insert+0x2c>
    b7d4:	20800217 	ldw	r2,8(r4)
    b7d8:	10000826 	beq	r2,zero,b7fc <alt_dev_llist_insert+0x2c>
    b7dc:	28c00017 	ldw	r3,0(r5)
    b7e0:	21400115 	stw	r5,4(r4)
    b7e4:	0005883a 	mov	r2,zero
    b7e8:	20c00015 	stw	r3,0(r4)
    b7ec:	28c00017 	ldw	r3,0(r5)
    b7f0:	19000115 	stw	r4,4(r3)
    b7f4:	29000015 	stw	r4,0(r5)
    b7f8:	f800283a 	ret
    b7fc:	00800074 	movhi	r2,1
    b800:	10b3dc04 	addi	r2,r2,-12432
    b804:	10800017 	ldw	r2,0(r2)
    b808:	10000926 	beq	r2,zero,b830 <alt_dev_llist_insert+0x60>
    b80c:	deffff04 	addi	sp,sp,-4
    b810:	dfc00015 	stw	ra,0(sp)
    b814:	103ee83a 	callr	r2
    b818:	00c00584 	movi	r3,22
    b81c:	10c00015 	stw	r3,0(r2)
    b820:	00bffa84 	movi	r2,-22
    b824:	dfc00017 	ldw	ra,0(sp)
    b828:	dec00104 	addi	sp,sp,4
    b82c:	f800283a 	ret
    b830:	00800074 	movhi	r2,1
    b834:	10b67e04 	addi	r2,r2,-9736
    b838:	00c00584 	movi	r3,22
    b83c:	10c00015 	stw	r3,0(r2)
    b840:	00bffa84 	movi	r2,-22
    b844:	f800283a 	ret

0000b848 <_do_ctors>:
    b848:	defffc04 	addi	sp,sp,-16
    b84c:	dc800215 	stw	r18,8(sp)
    b850:	dc000015 	stw	r16,0(sp)
    b854:	04800074 	movhi	r18,1
    b858:	04000074 	movhi	r16,1
    b85c:	dfc00315 	stw	ra,12(sp)
    b860:	dc400115 	stw	r17,4(sp)
    b864:	84310704 	addi	r16,r16,-15332
    b868:	94b10804 	addi	r18,r18,-15328
    b86c:	84800936 	bltu	r16,r18,b894 <_do_ctors+0x4c>
    b870:	84a5c83a 	sub	r18,r16,r18
    b874:	9024d0ba 	srli	r18,r18,2
    b878:	0023883a 	mov	r17,zero
    b87c:	94800044 	addi	r18,r18,1
    b880:	80800017 	ldw	r2,0(r16)
    b884:	8c400044 	addi	r17,r17,1
    b888:	843fff04 	addi	r16,r16,-4
    b88c:	103ee83a 	callr	r2
    b890:	8cbffb1e 	bne	r17,r18,b880 <_do_ctors+0x38>
    b894:	dfc00317 	ldw	ra,12(sp)
    b898:	dc800217 	ldw	r18,8(sp)
    b89c:	dc400117 	ldw	r17,4(sp)
    b8a0:	dc000017 	ldw	r16,0(sp)
    b8a4:	dec00404 	addi	sp,sp,16
    b8a8:	f800283a 	ret

0000b8ac <_do_dtors>:
    b8ac:	defffc04 	addi	sp,sp,-16
    b8b0:	dc800215 	stw	r18,8(sp)
    b8b4:	dc000015 	stw	r16,0(sp)
    b8b8:	04800074 	movhi	r18,1
    b8bc:	04000074 	movhi	r16,1
    b8c0:	dfc00315 	stw	ra,12(sp)
    b8c4:	dc400115 	stw	r17,4(sp)
    b8c8:	84310704 	addi	r16,r16,-15332
    b8cc:	94b10804 	addi	r18,r18,-15328
    b8d0:	84800936 	bltu	r16,r18,b8f8 <_do_dtors+0x4c>
    b8d4:	84a5c83a 	sub	r18,r16,r18
    b8d8:	9024d0ba 	srli	r18,r18,2
    b8dc:	0023883a 	mov	r17,zero
    b8e0:	94800044 	addi	r18,r18,1
    b8e4:	80800017 	ldw	r2,0(r16)
    b8e8:	8c400044 	addi	r17,r17,1
    b8ec:	843fff04 	addi	r16,r16,-4
    b8f0:	103ee83a 	callr	r2
    b8f4:	8cbffb1e 	bne	r17,r18,b8e4 <_do_dtors+0x38>
    b8f8:	dfc00317 	ldw	ra,12(sp)
    b8fc:	dc800217 	ldw	r18,8(sp)
    b900:	dc400117 	ldw	r17,4(sp)
    b904:	dc000017 	ldw	r16,0(sp)
    b908:	dec00404 	addi	sp,sp,16
    b90c:	f800283a 	ret

0000b910 <alt_icache_flush_all>:
    b910:	f800283a 	ret

0000b914 <alt_ic_isr_register>:
    b914:	000b9b01 	jmpi	b9b0 <alt_iic_isr_register>

0000b918 <alt_ic_irq_enable>:
    b918:	0009303a 	rdctl	r4,status
    b91c:	00bfff84 	movi	r2,-2
    b920:	2084703a 	and	r2,r4,r2
    b924:	1001703a 	wrctl	status,r2
    b928:	00800074 	movhi	r2,1
    b92c:	10b68204 	addi	r2,r2,-9720
    b930:	00c00044 	movi	r3,1
    b934:	194a983a 	sll	r5,r3,r5
    b938:	10c00017 	ldw	r3,0(r2)
    b93c:	28cab03a 	or	r5,r5,r3
    b940:	11400015 	stw	r5,0(r2)
    b944:	10800017 	ldw	r2,0(r2)
    b948:	100170fa 	wrctl	ienable,r2
    b94c:	2001703a 	wrctl	status,r4
    b950:	0005883a 	mov	r2,zero
    b954:	f800283a 	ret

0000b958 <alt_ic_irq_disable>:
    b958:	0009303a 	rdctl	r4,status
    b95c:	00bfff84 	movi	r2,-2
    b960:	2084703a 	and	r2,r4,r2
    b964:	1001703a 	wrctl	status,r2
    b968:	00800074 	movhi	r2,1
    b96c:	10b68204 	addi	r2,r2,-9720
    b970:	00ffff84 	movi	r3,-2
    b974:	194a183a 	rol	r5,r3,r5
    b978:	10c00017 	ldw	r3,0(r2)
    b97c:	28ca703a 	and	r5,r5,r3
    b980:	11400015 	stw	r5,0(r2)
    b984:	10800017 	ldw	r2,0(r2)
    b988:	100170fa 	wrctl	ienable,r2
    b98c:	2001703a 	wrctl	status,r4
    b990:	0005883a 	mov	r2,zero
    b994:	f800283a 	ret

0000b998 <alt_ic_irq_enabled>:
    b998:	000730fa 	rdctl	r3,ienable
    b99c:	00800044 	movi	r2,1
    b9a0:	1144983a 	sll	r2,r2,r5
    b9a4:	10c4703a 	and	r2,r2,r3
    b9a8:	1004c03a 	cmpne	r2,r2,zero
    b9ac:	f800283a 	ret

0000b9b0 <alt_iic_isr_register>:
    b9b0:	00c007c4 	movi	r3,31
    b9b4:	19401616 	blt	r3,r5,ba10 <alt_iic_isr_register+0x60>
    b9b8:	defffe04 	addi	sp,sp,-8
    b9bc:	dfc00115 	stw	ra,4(sp)
    b9c0:	dc000015 	stw	r16,0(sp)
    b9c4:	0021303a 	rdctl	r16,status
    b9c8:	00ffff84 	movi	r3,-2
    b9cc:	80c6703a 	and	r3,r16,r3
    b9d0:	1801703a 	wrctl	status,r3
    b9d4:	280490fa 	slli	r2,r5,3
    b9d8:	00c00074 	movhi	r3,1
    b9dc:	18f69304 	addi	r3,r3,-9652
    b9e0:	1885883a 	add	r2,r3,r2
    b9e4:	11800015 	stw	r6,0(r2)
    b9e8:	11c00115 	stw	r7,4(r2)
    b9ec:	30000626 	beq	r6,zero,ba08 <alt_iic_isr_register+0x58>
    b9f0:	000b9180 	call	b918 <alt_ic_irq_enable>
    b9f4:	8001703a 	wrctl	status,r16
    b9f8:	dfc00117 	ldw	ra,4(sp)
    b9fc:	dc000017 	ldw	r16,0(sp)
    ba00:	dec00204 	addi	sp,sp,8
    ba04:	f800283a 	ret
    ba08:	000b9580 	call	b958 <alt_ic_irq_disable>
    ba0c:	003ff906 	br	b9f4 <alt_iic_isr_register+0x44>
    ba10:	00bffa84 	movi	r2,-22
    ba14:	f800283a 	ret

0000ba18 <alt_open_fd.constprop.0>:
    ba18:	defffd04 	addi	sp,sp,-12
    ba1c:	2805883a 	mov	r2,r5
    ba20:	dc400115 	stw	r17,4(sp)
    ba24:	300b883a 	mov	r5,r6
    ba28:	2023883a 	mov	r17,r4
    ba2c:	01807fc4 	movi	r6,511
    ba30:	1009883a 	mov	r4,r2
    ba34:	dfc00215 	stw	ra,8(sp)
    ba38:	dc000015 	stw	r16,0(sp)
    ba3c:	000bb180 	call	bb18 <open>
    ba40:	10001316 	blt	r2,zero,ba90 <alt_open_fd.constprop.0+0x78>
    ba44:	1009883a 	mov	r4,r2
    ba48:	01400304 	movi	r5,12
    ba4c:	1021883a 	mov	r16,r2
    ba50:	000acdc0 	call	acdc <__mulsi3>
    ba54:	00c00074 	movhi	r3,1
    ba58:	18f35204 	addi	r3,r3,-12984
    ba5c:	1885883a 	add	r2,r3,r2
    ba60:	11400017 	ldw	r5,0(r2)
    ba64:	10c00217 	ldw	r3,8(r2)
    ba68:	8009883a 	mov	r4,r16
    ba6c:	89400015 	stw	r5,0(r17)
    ba70:	10800117 	ldw	r2,4(r2)
    ba74:	88c00215 	stw	r3,8(r17)
    ba78:	88800115 	stw	r2,4(r17)
    ba7c:	dfc00217 	ldw	ra,8(sp)
    ba80:	dc400117 	ldw	r17,4(sp)
    ba84:	dc000017 	ldw	r16,0(sp)
    ba88:	dec00304 	addi	sp,sp,12
    ba8c:	000b2f01 	jmpi	b2f0 <alt_release_fd>
    ba90:	dfc00217 	ldw	ra,8(sp)
    ba94:	dc400117 	ldw	r17,4(sp)
    ba98:	dc000017 	ldw	r16,0(sp)
    ba9c:	dec00304 	addi	sp,sp,12
    baa0:	f800283a 	ret

0000baa4 <alt_io_redirect>:
    baa4:	defffb04 	addi	sp,sp,-20
    baa8:	dc000015 	stw	r16,0(sp)
    baac:	04000074 	movhi	r16,1
    bab0:	84335504 	addi	r16,r16,-12972
    bab4:	dc400115 	stw	r17,4(sp)
    bab8:	04400044 	movi	r17,1
    babc:	dcc00315 	stw	r19,12(sp)
    bac0:	dc800215 	stw	r18,8(sp)
    bac4:	2827883a 	mov	r19,r5
    bac8:	3025883a 	mov	r18,r6
    bacc:	200b883a 	mov	r5,r4
    bad0:	880d883a 	mov	r6,r17
    bad4:	8009883a 	mov	r4,r16
    bad8:	dfc00415 	stw	ra,16(sp)
    badc:	000ba180 	call	ba18 <alt_open_fd.constprop.0>
    bae0:	813ffd04 	addi	r4,r16,-12
    bae4:	980b883a 	mov	r5,r19
    bae8:	000d883a 	mov	r6,zero
    baec:	000ba180 	call	ba18 <alt_open_fd.constprop.0>
    baf0:	880d883a 	mov	r6,r17
    baf4:	900b883a 	mov	r5,r18
    baf8:	81000304 	addi	r4,r16,12
    bafc:	dfc00417 	ldw	ra,16(sp)
    bb00:	dcc00317 	ldw	r19,12(sp)
    bb04:	dc800217 	ldw	r18,8(sp)
    bb08:	dc400117 	ldw	r17,4(sp)
    bb0c:	dc000017 	ldw	r16,0(sp)
    bb10:	dec00504 	addi	sp,sp,20
    bb14:	000ba181 	jmpi	ba18 <alt_open_fd.constprop.0>

0000bb18 <open>:
    bb18:	defffa04 	addi	sp,sp,-24
    bb1c:	dc000015 	stw	r16,0(sp)
    bb20:	2821883a 	mov	r16,r5
    bb24:	01400074 	movhi	r5,1
    bb28:	2973d804 	addi	r5,r5,-12448
    bb2c:	dc800215 	stw	r18,8(sp)
    bb30:	dc400115 	stw	r17,4(sp)
    bb34:	dfc00515 	stw	ra,20(sp)
    bb38:	dd000415 	stw	r20,16(sp)
    bb3c:	dcc00315 	stw	r19,12(sp)
    bb40:	2023883a 	mov	r17,r4
    bb44:	3025883a 	mov	r18,r6
    bb48:	000bde80 	call	bde8 <alt_find_dev>
    bb4c:	10004e26 	beq	r2,zero,bc88 <open+0x170>
    bb50:	1009883a 	mov	r4,r2
    bb54:	1029883a 	mov	r20,r2
    bb58:	000bf100 	call	bf10 <alt_get_fd>
    bb5c:	1027883a 	mov	r19,r2
    bb60:	10000b0e 	bge	r2,zero,bb90 <open+0x78>
    bb64:	04e1c83a 	sub	r16,zero,r19
    bb68:	9809883a 	mov	r4,r19
    bb6c:	000b2f00 	call	b2f0 <alt_release_fd>
    bb70:	00800074 	movhi	r2,1
    bb74:	10b3dc04 	addi	r2,r2,-12432
    bb78:	10800017 	ldw	r2,0(r2)
    bb7c:	10004926 	beq	r2,zero,bca4 <open+0x18c>
    bb80:	103ee83a 	callr	r2
    bb84:	14000015 	stw	r16,0(r2)
    bb88:	00bfffc4 	movi	r2,-1
    bb8c:	00003406 	br	bc60 <open+0x148>
    bb90:	01400304 	movi	r5,12
    bb94:	9809883a 	mov	r4,r19
    bb98:	000acdc0 	call	acdc <__mulsi3>
    bb9c:	00c00074 	movhi	r3,1
    bba0:	01500034 	movhi	r5,16384
    bba4:	18f35204 	addi	r3,r3,-12984
    bba8:	297fffc4 	addi	r5,r5,-1
    bbac:	1889883a 	add	r4,r3,r2
    bbb0:	814a703a 	and	r5,r16,r5
    bbb4:	00800074 	movhi	r2,1
    bbb8:	29500034 	orhi	r5,r5,16384
    bbbc:	10b3d704 	addi	r2,r2,-12452
    bbc0:	21400215 	stw	r5,8(r4)
    bbc4:	12400017 	ldw	r9,0(r2)
    bbc8:	22000017 	ldw	r8,0(r4)
    bbcc:	19800204 	addi	r6,r3,8
    bbd0:	000b883a 	mov	r5,zero
    bbd4:	00000306 	br	bbe4 <open+0xcc>
    bbd8:	18c00304 	addi	r3,r3,12
    bbdc:	31800304 	addi	r6,r6,12
    bbe0:	49401636 	bltu	r9,r5,bc3c <open+0x124>
    bbe4:	19c00017 	ldw	r7,0(r3)
    bbe8:	29400044 	addi	r5,r5,1
    bbec:	3a3ffa1e 	bne	r7,r8,bbd8 <open+0xc0>
    bbf0:	30800017 	ldw	r2,0(r6)
    bbf4:	103ff80e 	bge	r2,zero,bbd8 <open+0xc0>
    bbf8:	20fff726 	beq	r4,r3,bbd8 <open+0xc0>
    bbfc:	04000344 	movi	r16,13
    bc00:	003fd906 	br	bb68 <open+0x50>
    bc04:	1009883a 	mov	r4,r2
    bc08:	000bf100 	call	bf10 <alt_get_fd>
    bc0c:	1027883a 	mov	r19,r2
    bc10:	103fd416 	blt	r2,zero,bb64 <open+0x4c>
    bc14:	9809883a 	mov	r4,r19
    bc18:	01400304 	movi	r5,12
    bc1c:	000acdc0 	call	acdc <__mulsi3>
    bc20:	01000074 	movhi	r4,1
    bc24:	21335204 	addi	r4,r4,-12984
    bc28:	2089883a 	add	r4,r4,r2
    bc2c:	00900034 	movhi	r2,16384
    bc30:	10bfffc4 	addi	r2,r2,-1
    bc34:	8084703a 	and	r2,r16,r2
    bc38:	20800215 	stw	r2,8(r4)
    bc3c:	a0800317 	ldw	r2,12(r20)
    bc40:	10000f26 	beq	r2,zero,bc80 <open+0x168>
    bc44:	900f883a 	mov	r7,r18
    bc48:	800d883a 	mov	r6,r16
    bc4c:	880b883a 	mov	r5,r17
    bc50:	103ee83a 	callr	r2
    bc54:	1007883a 	mov	r3,r2
    bc58:	9805883a 	mov	r2,r19
    bc5c:	18001416 	blt	r3,zero,bcb0 <open+0x198>
    bc60:	dfc00517 	ldw	ra,20(sp)
    bc64:	dd000417 	ldw	r20,16(sp)
    bc68:	dcc00317 	ldw	r19,12(sp)
    bc6c:	dc800217 	ldw	r18,8(sp)
    bc70:	dc400117 	ldw	r17,4(sp)
    bc74:	dc000017 	ldw	r16,0(sp)
    bc78:	dec00604 	addi	sp,sp,24
    bc7c:	f800283a 	ret
    bc80:	9805883a 	mov	r2,r19
    bc84:	003ff606 	br	bc60 <open+0x148>
    bc88:	8809883a 	mov	r4,r17
    bc8c:	000be600 	call	be60 <alt_find_file>
    bc90:	1029883a 	mov	r20,r2
    bc94:	103fdb1e 	bne	r2,zero,bc04 <open+0xec>
    bc98:	040004c4 	movi	r16,19
    bc9c:	04ffffc4 	movi	r19,-1
    bca0:	003fb106 	br	bb68 <open+0x50>
    bca4:	00800074 	movhi	r2,1
    bca8:	10b67e04 	addi	r2,r2,-9736
    bcac:	003fb506 	br	bb84 <open+0x6c>
    bcb0:	00e1c83a 	sub	r16,zero,r3
    bcb4:	003fac06 	br	bb68 <open+0x50>

0000bcb8 <alt_alarm_stop>:
    bcb8:	0007303a 	rdctl	r3,status
    bcbc:	00bfff84 	movi	r2,-2
    bcc0:	1884703a 	and	r2,r3,r2
    bcc4:	1001703a 	wrctl	status,r2
    bcc8:	21400117 	ldw	r5,4(r4)
    bccc:	20800017 	ldw	r2,0(r4)
    bcd0:	11400115 	stw	r5,4(r2)
    bcd4:	21400117 	ldw	r5,4(r4)
    bcd8:	28800015 	stw	r2,0(r5)
    bcdc:	21000115 	stw	r4,4(r4)
    bce0:	21000015 	stw	r4,0(r4)
    bce4:	1801703a 	wrctl	status,r3
    bce8:	f800283a 	ret

0000bcec <alt_tick>:
    bcec:	d0a2b117 	ldw	r2,-30012(gp)
    bcf0:	defffa04 	addi	sp,sp,-24
    bcf4:	dc000015 	stw	r16,0(sp)
    bcf8:	d4200d17 	ldw	r16,-32716(gp)
    bcfc:	10800044 	addi	r2,r2,1
    bd00:	dc800215 	stw	r18,8(sp)
    bd04:	dfc00515 	stw	ra,20(sp)
    bd08:	dd000415 	stw	r20,16(sp)
    bd0c:	dcc00315 	stw	r19,12(sp)
    bd10:	dc400115 	stw	r17,4(sp)
    bd14:	d4a00d04 	addi	r18,gp,-32716
    bd18:	d0a2b115 	stw	r2,-30012(gp)
    bd1c:	84801126 	beq	r16,r18,bd64 <alt_tick+0x78>
    bd20:	04c00044 	movi	r19,1
    bd24:	053fff84 	movi	r20,-2
    bd28:	00000606 	br	bd44 <alt_tick+0x58>
    bd2c:	80000405 	stb	zero,16(r16)
    bd30:	d0e2b117 	ldw	r3,-30012(gp)
    bd34:	80800217 	ldw	r2,8(r16)
    bd38:	1880122e 	bgeu	r3,r2,bd84 <alt_tick+0x98>
    bd3c:	8821883a 	mov	r16,r17
    bd40:	8c800826 	beq	r17,r18,bd64 <alt_tick+0x78>
    bd44:	80800403 	ldbu	r2,16(r16)
    bd48:	84400017 	ldw	r17,0(r16)
    bd4c:	103ff826 	beq	r2,zero,bd30 <alt_tick+0x44>
    bd50:	d0a2b117 	ldw	r2,-30012(gp)
    bd54:	103ff526 	beq	r2,zero,bd2c <alt_tick+0x40>
    bd58:	d0a2b117 	ldw	r2,-30012(gp)
    bd5c:	8821883a 	mov	r16,r17
    bd60:	8cbff81e 	bne	r17,r18,bd44 <alt_tick+0x58>
    bd64:	dfc00517 	ldw	ra,20(sp)
    bd68:	dd000417 	ldw	r20,16(sp)
    bd6c:	dcc00317 	ldw	r19,12(sp)
    bd70:	dc800217 	ldw	r18,8(sp)
    bd74:	dc400117 	ldw	r17,4(sp)
    bd78:	dc000017 	ldw	r16,0(sp)
    bd7c:	dec00604 	addi	sp,sp,24
    bd80:	f800283a 	ret
    bd84:	80800317 	ldw	r2,12(r16)
    bd88:	81000517 	ldw	r4,20(r16)
    bd8c:	103ee83a 	callr	r2
    bd90:	10000726 	beq	r2,zero,bdb0 <alt_tick+0xc4>
    bd94:	80c00217 	ldw	r3,8(r16)
    bd98:	d122b117 	ldw	r4,-30012(gp)
    bd9c:	10c5883a 	add	r2,r2,r3
    bda0:	80800215 	stw	r2,8(r16)
    bda4:	113fe52e 	bgeu	r2,r4,bd3c <alt_tick+0x50>
    bda8:	84c00405 	stb	r19,16(r16)
    bdac:	003fe306 	br	bd3c <alt_tick+0x50>
    bdb0:	0005303a 	rdctl	r2,status
    bdb4:	1506703a 	and	r3,r2,r20
    bdb8:	1801703a 	wrctl	status,r3
    bdbc:	81000117 	ldw	r4,4(r16)
    bdc0:	80c00017 	ldw	r3,0(r16)
    bdc4:	19000115 	stw	r4,4(r3)
    bdc8:	81000117 	ldw	r4,4(r16)
    bdcc:	20c00015 	stw	r3,0(r4)
    bdd0:	84000115 	stw	r16,4(r16)
    bdd4:	84000015 	stw	r16,0(r16)
    bdd8:	1001703a 	wrctl	status,r2
    bddc:	003fd706 	br	bd3c <alt_tick+0x50>

0000bde0 <altera_nios2_gen2_irq_init>:
    bde0:	000170fa 	wrctl	ienable,zero
    bde4:	f800283a 	ret

0000bde8 <alt_find_dev>:
    bde8:	defffb04 	addi	sp,sp,-20
    bdec:	dc000015 	stw	r16,0(sp)
    bdf0:	2c000017 	ldw	r16,0(r5)
    bdf4:	dc400115 	stw	r17,4(sp)
    bdf8:	2823883a 	mov	r17,r5
    bdfc:	dcc00315 	stw	r19,12(sp)
    be00:	dfc00415 	stw	ra,16(sp)
    be04:	dc800215 	stw	r18,8(sp)
    be08:	2027883a 	mov	r19,r4
    be0c:	000c0dc0 	call	c0dc <strlen>
    be10:	8c000b26 	beq	r17,r16,be40 <alt_find_dev+0x58>
    be14:	14800044 	addi	r18,r2,1
    be18:	00000206 	br	be24 <alt_find_dev+0x3c>
    be1c:	84000017 	ldw	r16,0(r16)
    be20:	8c000726 	beq	r17,r16,be40 <alt_find_dev+0x58>
    be24:	81000217 	ldw	r4,8(r16)
    be28:	900d883a 	mov	r6,r18
    be2c:	980b883a 	mov	r5,r19
    be30:	000c0600 	call	c060 <memcmp>
    be34:	103ff91e 	bne	r2,zero,be1c <alt_find_dev+0x34>
    be38:	8005883a 	mov	r2,r16
    be3c:	00000106 	br	be44 <alt_find_dev+0x5c>
    be40:	0005883a 	mov	r2,zero
    be44:	dfc00417 	ldw	ra,16(sp)
    be48:	dcc00317 	ldw	r19,12(sp)
    be4c:	dc800217 	ldw	r18,8(sp)
    be50:	dc400117 	ldw	r17,4(sp)
    be54:	dc000017 	ldw	r16,0(sp)
    be58:	dec00504 	addi	sp,sp,20
    be5c:	f800283a 	ret

0000be60 <alt_find_file>:
    be60:	defffa04 	addi	sp,sp,-24
    be64:	dd000415 	stw	r20,16(sp)
    be68:	05000074 	movhi	r20,1
    be6c:	a533da04 	addi	r20,r20,-12440
    be70:	dc000015 	stw	r16,0(sp)
    be74:	a4000017 	ldw	r16,0(r20)
    be78:	dfc00515 	stw	ra,20(sp)
    be7c:	dcc00315 	stw	r19,12(sp)
    be80:	dc800215 	stw	r18,8(sp)
    be84:	dc400115 	stw	r17,4(sp)
    be88:	85001626 	beq	r16,r20,bee4 <alt_find_file+0x84>
    be8c:	2025883a 	mov	r18,r4
    be90:	04c00bc4 	movi	r19,47
    be94:	00000806 	br	beb8 <alt_find_file+0x58>
    be98:	9185883a 	add	r2,r18,r6
    be9c:	10800007 	ldb	r2,0(r2)
    bea0:	14c00126 	beq	r2,r19,bea8 <alt_find_file+0x48>
    bea4:	1000021e 	bne	r2,zero,beb0 <alt_find_file+0x50>
    bea8:	000c0600 	call	c060 <memcmp>
    beac:	10001626 	beq	r2,zero,bf08 <alt_find_file+0xa8>
    beb0:	84000017 	ldw	r16,0(r16)
    beb4:	85000b26 	beq	r16,r20,bee4 <alt_find_file+0x84>
    beb8:	84400217 	ldw	r17,8(r16)
    bebc:	8809883a 	mov	r4,r17
    bec0:	000c0dc0 	call	c0dc <strlen>
    bec4:	100d883a 	mov	r6,r2
    bec8:	8885883a 	add	r2,r17,r2
    becc:	10bfffc7 	ldb	r2,-1(r2)
    bed0:	900b883a 	mov	r5,r18
    bed4:	8809883a 	mov	r4,r17
    bed8:	14ffef1e 	bne	r2,r19,be98 <alt_find_file+0x38>
    bedc:	31bfffc4 	addi	r6,r6,-1
    bee0:	003fed06 	br	be98 <alt_find_file+0x38>
    bee4:	0005883a 	mov	r2,zero
    bee8:	dfc00517 	ldw	ra,20(sp)
    beec:	dd000417 	ldw	r20,16(sp)
    bef0:	dcc00317 	ldw	r19,12(sp)
    bef4:	dc800217 	ldw	r18,8(sp)
    bef8:	dc400117 	ldw	r17,4(sp)
    befc:	dc000017 	ldw	r16,0(sp)
    bf00:	dec00604 	addi	sp,sp,24
    bf04:	f800283a 	ret
    bf08:	8005883a 	mov	r2,r16
    bf0c:	003ff606 	br	bee8 <alt_find_file+0x88>

0000bf10 <alt_get_fd>:
    bf10:	defffc04 	addi	sp,sp,-16
    bf14:	dc400115 	stw	r17,4(sp)
    bf18:	04400074 	movhi	r17,1
    bf1c:	8c735204 	addi	r17,r17,-12984
    bf20:	dc000015 	stw	r16,0(sp)
    bf24:	dfc00315 	stw	ra,12(sp)
    bf28:	dc800215 	stw	r18,8(sp)
    bf2c:	0021883a 	mov	r16,zero
    bf30:	8805883a 	mov	r2,r17
    bf34:	01400804 	movi	r5,32
    bf38:	00000206 	br	bf44 <alt_get_fd+0x34>
    bf3c:	84000044 	addi	r16,r16,1
    bf40:	81401526 	beq	r16,r5,bf98 <alt_get_fd+0x88>
    bf44:	10c00017 	ldw	r3,0(r2)
    bf48:	10800304 	addi	r2,r2,12
    bf4c:	183ffb1e 	bne	r3,zero,bf3c <alt_get_fd+0x2c>
    bf50:	2025883a 	mov	r18,r4
    bf54:	01400304 	movi	r5,12
    bf58:	8009883a 	mov	r4,r16
    bf5c:	000acdc0 	call	acdc <__mulsi3>
    bf60:	00c00074 	movhi	r3,1
    bf64:	8885883a 	add	r2,r17,r2
    bf68:	18f3d704 	addi	r3,r3,-12452
    bf6c:	14800015 	stw	r18,0(r2)
    bf70:	18800017 	ldw	r2,0(r3)
    bf74:	1400010e 	bge	r2,r16,bf7c <alt_get_fd+0x6c>
    bf78:	1c000015 	stw	r16,0(r3)
    bf7c:	8005883a 	mov	r2,r16
    bf80:	dfc00317 	ldw	ra,12(sp)
    bf84:	dc800217 	ldw	r18,8(sp)
    bf88:	dc400117 	ldw	r17,4(sp)
    bf8c:	dc000017 	ldw	r16,0(sp)
    bf90:	dec00404 	addi	sp,sp,16
    bf94:	f800283a 	ret
    bf98:	043ffa04 	movi	r16,-24
    bf9c:	003ff706 	br	bf7c <alt_get_fd+0x6c>

0000bfa0 <alt_exception_cause_generated_bad_addr>:
    bfa0:	213ffe84 	addi	r4,r4,-6
    bfa4:	008003c4 	movi	r2,15
    bfa8:	11001636 	bltu	r2,r4,c004 <alt_exception_cause_generated_bad_addr+0x64>
    bfac:	200890ba 	slli	r4,r4,2
    bfb0:	00800074 	movhi	r2,1
    bfb4:	10aff104 	addi	r2,r2,-16444
    bfb8:	2089883a 	add	r4,r4,r2
    bfbc:	20800017 	ldw	r2,0(r4)
    bfc0:	1000683a 	jmp	r2
    bfc4:	0000c00c 	andi	zero,zero,768
    bfc8:	0000c00c 	andi	zero,zero,768
    bfcc:	0000c004 	movi	zero,768
    bfd0:	0000c004 	movi	zero,768
    bfd4:	0000c004 	movi	zero,768
    bfd8:	0000c00c 	andi	zero,zero,768
    bfdc:	0000c004 	movi	zero,768
    bfe0:	0000c004 	movi	zero,768
    bfe4:	0000c00c 	andi	zero,zero,768
    bfe8:	0000c00c 	andi	zero,zero,768
    bfec:	0000c004 	movi	zero,768
    bff0:	0000c00c 	andi	zero,zero,768
    bff4:	0000c004 	movi	zero,768
    bff8:	0000c004 	movi	zero,768
    bffc:	0000c004 	movi	zero,768
    c000:	0000c00c 	andi	zero,zero,768
    c004:	0005883a 	mov	r2,zero
    c008:	f800283a 	ret
    c00c:	00800044 	movi	r2,1
    c010:	f800283a 	ret

0000c014 <atexit>:
    c014:	200b883a 	mov	r5,r4
    c018:	000f883a 	mov	r7,zero
    c01c:	000d883a 	mov	r6,zero
    c020:	0009883a 	mov	r4,zero
    c024:	000c1741 	jmpi	c174 <__register_exitproc>

0000c028 <exit>:
    c028:	defffe04 	addi	sp,sp,-8
    c02c:	000b883a 	mov	r5,zero
    c030:	dc000015 	stw	r16,0(sp)
    c034:	dfc00115 	stw	ra,4(sp)
    c038:	2021883a 	mov	r16,r4
    c03c:	000c28c0 	call	c28c <__call_exitprocs>
    c040:	00800074 	movhi	r2,1
    c044:	10b3d304 	addi	r2,r2,-12468
    c048:	11000017 	ldw	r4,0(r2)
    c04c:	20800f17 	ldw	r2,60(r4)
    c050:	10000126 	beq	r2,zero,c058 <exit+0x30>
    c054:	103ee83a 	callr	r2
    c058:	8009883a 	mov	r4,r16
    c05c:	000c40c0 	call	c40c <_exit>

0000c060 <memcmp>:
    c060:	01c000c4 	movi	r7,3
    c064:	3980192e 	bgeu	r7,r6,c0cc <memcmp+0x6c>
    c068:	2144b03a 	or	r2,r4,r5
    c06c:	11c4703a 	and	r2,r2,r7
    c070:	10000f26 	beq	r2,zero,c0b0 <memcmp+0x50>
    c074:	20800003 	ldbu	r2,0(r4)
    c078:	28c00003 	ldbu	r3,0(r5)
    c07c:	10c0151e 	bne	r2,r3,c0d4 <memcmp+0x74>
    c080:	31bfff84 	addi	r6,r6,-2
    c084:	01ffffc4 	movi	r7,-1
    c088:	00000406 	br	c09c <memcmp+0x3c>
    c08c:	20800003 	ldbu	r2,0(r4)
    c090:	28c00003 	ldbu	r3,0(r5)
    c094:	31bfffc4 	addi	r6,r6,-1
    c098:	10c00e1e 	bne	r2,r3,c0d4 <memcmp+0x74>
    c09c:	21000044 	addi	r4,r4,1
    c0a0:	29400044 	addi	r5,r5,1
    c0a4:	31fff91e 	bne	r6,r7,c08c <memcmp+0x2c>
    c0a8:	0005883a 	mov	r2,zero
    c0ac:	f800283a 	ret
    c0b0:	20c00017 	ldw	r3,0(r4)
    c0b4:	28800017 	ldw	r2,0(r5)
    c0b8:	18bfee1e 	bne	r3,r2,c074 <memcmp+0x14>
    c0bc:	31bfff04 	addi	r6,r6,-4
    c0c0:	21000104 	addi	r4,r4,4
    c0c4:	29400104 	addi	r5,r5,4
    c0c8:	39bff936 	bltu	r7,r6,c0b0 <memcmp+0x50>
    c0cc:	303fe91e 	bne	r6,zero,c074 <memcmp+0x14>
    c0d0:	003ff506 	br	c0a8 <memcmp+0x48>
    c0d4:	10c5c83a 	sub	r2,r2,r3
    c0d8:	f800283a 	ret

0000c0dc <strlen>:
    c0dc:	208000cc 	andi	r2,r4,3
    c0e0:	10002026 	beq	r2,zero,c164 <strlen+0x88>
    c0e4:	20800007 	ldb	r2,0(r4)
    c0e8:	10002026 	beq	r2,zero,c16c <strlen+0x90>
    c0ec:	2005883a 	mov	r2,r4
    c0f0:	00000206 	br	c0fc <strlen+0x20>
    c0f4:	10c00007 	ldb	r3,0(r2)
    c0f8:	18001826 	beq	r3,zero,c15c <strlen+0x80>
    c0fc:	10800044 	addi	r2,r2,1
    c100:	10c000cc 	andi	r3,r2,3
    c104:	183ffb1e 	bne	r3,zero,c0f4 <strlen+0x18>
    c108:	10c00017 	ldw	r3,0(r2)
    c10c:	01ffbff4 	movhi	r7,65279
    c110:	39ffbfc4 	addi	r7,r7,-257
    c114:	00ca303a 	nor	r5,zero,r3
    c118:	01a02074 	movhi	r6,32897
    c11c:	19c7883a 	add	r3,r3,r7
    c120:	31a02004 	addi	r6,r6,-32640
    c124:	1946703a 	and	r3,r3,r5
    c128:	1986703a 	and	r3,r3,r6
    c12c:	1800091e 	bne	r3,zero,c154 <strlen+0x78>
    c130:	10800104 	addi	r2,r2,4
    c134:	10c00017 	ldw	r3,0(r2)
    c138:	19cb883a 	add	r5,r3,r7
    c13c:	00c6303a 	nor	r3,zero,r3
    c140:	28c6703a 	and	r3,r5,r3
    c144:	1986703a 	and	r3,r3,r6
    c148:	183ff926 	beq	r3,zero,c130 <strlen+0x54>
    c14c:	00000106 	br	c154 <strlen+0x78>
    c150:	10800044 	addi	r2,r2,1
    c154:	10c00007 	ldb	r3,0(r2)
    c158:	183ffd1e 	bne	r3,zero,c150 <strlen+0x74>
    c15c:	1105c83a 	sub	r2,r2,r4
    c160:	f800283a 	ret
    c164:	2005883a 	mov	r2,r4
    c168:	003fe706 	br	c108 <strlen+0x2c>
    c16c:	0005883a 	mov	r2,zero
    c170:	f800283a 	ret

0000c174 <__register_exitproc>:
    c174:	defffa04 	addi	sp,sp,-24
    c178:	dc000315 	stw	r16,12(sp)
    c17c:	04000074 	movhi	r16,1
    c180:	8433d304 	addi	r16,r16,-12468
    c184:	80c00017 	ldw	r3,0(r16)
    c188:	dc400415 	stw	r17,16(sp)
    c18c:	dfc00515 	stw	ra,20(sp)
    c190:	18805217 	ldw	r2,328(r3)
    c194:	2023883a 	mov	r17,r4
    c198:	10003726 	beq	r2,zero,c278 <__register_exitproc+0x104>
    c19c:	10c00117 	ldw	r3,4(r2)
    c1a0:	010007c4 	movi	r4,31
    c1a4:	20c00e16 	blt	r4,r3,c1e0 <__register_exitproc+0x6c>
    c1a8:	1a000044 	addi	r8,r3,1
    c1ac:	8800221e 	bne	r17,zero,c238 <__register_exitproc+0xc4>
    c1b0:	18c00084 	addi	r3,r3,2
    c1b4:	18c7883a 	add	r3,r3,r3
    c1b8:	18c7883a 	add	r3,r3,r3
    c1bc:	12000115 	stw	r8,4(r2)
    c1c0:	10c7883a 	add	r3,r2,r3
    c1c4:	19400015 	stw	r5,0(r3)
    c1c8:	0005883a 	mov	r2,zero
    c1cc:	dfc00517 	ldw	ra,20(sp)
    c1d0:	dc400417 	ldw	r17,16(sp)
    c1d4:	dc000317 	ldw	r16,12(sp)
    c1d8:	dec00604 	addi	sp,sp,24
    c1dc:	f800283a 	ret
    c1e0:	00800034 	movhi	r2,0
    c1e4:	10800004 	addi	r2,r2,0
    c1e8:	10002626 	beq	r2,zero,c284 <__register_exitproc+0x110>
    c1ec:	01006404 	movi	r4,400
    c1f0:	d9400015 	stw	r5,0(sp)
    c1f4:	d9800115 	stw	r6,4(sp)
    c1f8:	d9c00215 	stw	r7,8(sp)
    c1fc:	00000000 	call	0 <__alt_mem_onchip_memory2_0-0x8000>
    c200:	d9400017 	ldw	r5,0(sp)
    c204:	d9800117 	ldw	r6,4(sp)
    c208:	d9c00217 	ldw	r7,8(sp)
    c20c:	10001d26 	beq	r2,zero,c284 <__register_exitproc+0x110>
    c210:	81000017 	ldw	r4,0(r16)
    c214:	10000115 	stw	zero,4(r2)
    c218:	02000044 	movi	r8,1
    c21c:	22405217 	ldw	r9,328(r4)
    c220:	0007883a 	mov	r3,zero
    c224:	12400015 	stw	r9,0(r2)
    c228:	20805215 	stw	r2,328(r4)
    c22c:	10006215 	stw	zero,392(r2)
    c230:	10006315 	stw	zero,396(r2)
    c234:	883fde26 	beq	r17,zero,c1b0 <__register_exitproc+0x3c>
    c238:	18c9883a 	add	r4,r3,r3
    c23c:	2109883a 	add	r4,r4,r4
    c240:	1109883a 	add	r4,r2,r4
    c244:	21802215 	stw	r6,136(r4)
    c248:	01800044 	movi	r6,1
    c24c:	12406217 	ldw	r9,392(r2)
    c250:	30cc983a 	sll	r6,r6,r3
    c254:	4992b03a 	or	r9,r9,r6
    c258:	12406215 	stw	r9,392(r2)
    c25c:	21c04215 	stw	r7,264(r4)
    c260:	01000084 	movi	r4,2
    c264:	893fd21e 	bne	r17,r4,c1b0 <__register_exitproc+0x3c>
    c268:	11006317 	ldw	r4,396(r2)
    c26c:	218cb03a 	or	r6,r4,r6
    c270:	11806315 	stw	r6,396(r2)
    c274:	003fce06 	br	c1b0 <__register_exitproc+0x3c>
    c278:	18805304 	addi	r2,r3,332
    c27c:	18805215 	stw	r2,328(r3)
    c280:	003fc606 	br	c19c <__register_exitproc+0x28>
    c284:	00bfffc4 	movi	r2,-1
    c288:	003fd006 	br	c1cc <__register_exitproc+0x58>

0000c28c <__call_exitprocs>:
    c28c:	defff504 	addi	sp,sp,-44
    c290:	df000915 	stw	fp,36(sp)
    c294:	dd400615 	stw	r21,24(sp)
    c298:	dc800315 	stw	r18,12(sp)
    c29c:	dfc00a15 	stw	ra,40(sp)
    c2a0:	ddc00815 	stw	r23,32(sp)
    c2a4:	dd800715 	stw	r22,28(sp)
    c2a8:	dd000515 	stw	r20,20(sp)
    c2ac:	dcc00415 	stw	r19,16(sp)
    c2b0:	dc400215 	stw	r17,8(sp)
    c2b4:	dc000115 	stw	r16,4(sp)
    c2b8:	d9000015 	stw	r4,0(sp)
    c2bc:	2839883a 	mov	fp,r5
    c2c0:	04800044 	movi	r18,1
    c2c4:	057fffc4 	movi	r21,-1
    c2c8:	00800074 	movhi	r2,1
    c2cc:	10b3d304 	addi	r2,r2,-12468
    c2d0:	12000017 	ldw	r8,0(r2)
    c2d4:	45005217 	ldw	r20,328(r8)
    c2d8:	44c05204 	addi	r19,r8,328
    c2dc:	a0001c26 	beq	r20,zero,c350 <__call_exitprocs+0xc4>
    c2e0:	a0800117 	ldw	r2,4(r20)
    c2e4:	15ffffc4 	addi	r23,r2,-1
    c2e8:	b8000d16 	blt	r23,zero,c320 <__call_exitprocs+0x94>
    c2ec:	14000044 	addi	r16,r2,1
    c2f0:	8421883a 	add	r16,r16,r16
    c2f4:	8421883a 	add	r16,r16,r16
    c2f8:	84402004 	addi	r17,r16,128
    c2fc:	a463883a 	add	r17,r20,r17
    c300:	a421883a 	add	r16,r20,r16
    c304:	e0001e26 	beq	fp,zero,c380 <__call_exitprocs+0xf4>
    c308:	80804017 	ldw	r2,256(r16)
    c30c:	e0801c26 	beq	fp,r2,c380 <__call_exitprocs+0xf4>
    c310:	bdffffc4 	addi	r23,r23,-1
    c314:	843fff04 	addi	r16,r16,-4
    c318:	8c7fff04 	addi	r17,r17,-4
    c31c:	bd7ff91e 	bne	r23,r21,c304 <__call_exitprocs+0x78>
    c320:	00800034 	movhi	r2,0
    c324:	10800004 	addi	r2,r2,0
    c328:	10000926 	beq	r2,zero,c350 <__call_exitprocs+0xc4>
    c32c:	a0800117 	ldw	r2,4(r20)
    c330:	1000301e 	bne	r2,zero,c3f4 <__call_exitprocs+0x168>
    c334:	a0800017 	ldw	r2,0(r20)
    c338:	10003226 	beq	r2,zero,c404 <__call_exitprocs+0x178>
    c33c:	a009883a 	mov	r4,r20
    c340:	98800015 	stw	r2,0(r19)
    c344:	00000000 	call	0 <__alt_mem_onchip_memory2_0-0x8000>
    c348:	9d000017 	ldw	r20,0(r19)
    c34c:	a03fe41e 	bne	r20,zero,c2e0 <__call_exitprocs+0x54>
    c350:	dfc00a17 	ldw	ra,40(sp)
    c354:	df000917 	ldw	fp,36(sp)
    c358:	ddc00817 	ldw	r23,32(sp)
    c35c:	dd800717 	ldw	r22,28(sp)
    c360:	dd400617 	ldw	r21,24(sp)
    c364:	dd000517 	ldw	r20,20(sp)
    c368:	dcc00417 	ldw	r19,16(sp)
    c36c:	dc800317 	ldw	r18,12(sp)
    c370:	dc400217 	ldw	r17,8(sp)
    c374:	dc000117 	ldw	r16,4(sp)
    c378:	dec00b04 	addi	sp,sp,44
    c37c:	f800283a 	ret
    c380:	a0800117 	ldw	r2,4(r20)
    c384:	80c00017 	ldw	r3,0(r16)
    c388:	10bfffc4 	addi	r2,r2,-1
    c38c:	15c01426 	beq	r2,r23,c3e0 <__call_exitprocs+0x154>
    c390:	80000015 	stw	zero,0(r16)
    c394:	183fde26 	beq	r3,zero,c310 <__call_exitprocs+0x84>
    c398:	95c8983a 	sll	r4,r18,r23
    c39c:	a0806217 	ldw	r2,392(r20)
    c3a0:	a5800117 	ldw	r22,4(r20)
    c3a4:	2084703a 	and	r2,r4,r2
    c3a8:	10000b26 	beq	r2,zero,c3d8 <__call_exitprocs+0x14c>
    c3ac:	a0806317 	ldw	r2,396(r20)
    c3b0:	2088703a 	and	r4,r4,r2
    c3b4:	20000c1e 	bne	r4,zero,c3e8 <__call_exitprocs+0x15c>
    c3b8:	89400017 	ldw	r5,0(r17)
    c3bc:	d9000017 	ldw	r4,0(sp)
    c3c0:	183ee83a 	callr	r3
    c3c4:	a0800117 	ldw	r2,4(r20)
    c3c8:	15bfbf1e 	bne	r2,r22,c2c8 <__call_exitprocs+0x3c>
    c3cc:	98800017 	ldw	r2,0(r19)
    c3d0:	153fcf26 	beq	r2,r20,c310 <__call_exitprocs+0x84>
    c3d4:	003fbc06 	br	c2c8 <__call_exitprocs+0x3c>
    c3d8:	183ee83a 	callr	r3
    c3dc:	003ff906 	br	c3c4 <__call_exitprocs+0x138>
    c3e0:	a5c00115 	stw	r23,4(r20)
    c3e4:	003feb06 	br	c394 <__call_exitprocs+0x108>
    c3e8:	89000017 	ldw	r4,0(r17)
    c3ec:	183ee83a 	callr	r3
    c3f0:	003ff406 	br	c3c4 <__call_exitprocs+0x138>
    c3f4:	a0800017 	ldw	r2,0(r20)
    c3f8:	a027883a 	mov	r19,r20
    c3fc:	1029883a 	mov	r20,r2
    c400:	003fb606 	br	c2dc <__call_exitprocs+0x50>
    c404:	0005883a 	mov	r2,zero
    c408:	003ffb06 	br	c3f8 <__call_exitprocs+0x16c>

0000c40c <_exit>:
    c40c:	20000226 	beq	r4,zero,c418 <_exit+0xc>
    c410:	002af070 	cmpltui	zero,zero,43969
    c414:	003fff06 	br	c414 <_exit+0x8>
    c418:	002af0b0 	cmpltui	zero,zero,43970
    c41c:	003ffd06 	br	c414 <_exit+0x8>
